ccopy_reg
_reconstructor
p0
(cDirectedGraph
DirectedGraph
p1
c__builtin__
dict
p2
(dp3
g0
(cGraph
Vertex
p4
c__builtin__
object
p5
Ntp6
Rp7
(dp8
S'label'
p9
S'/w/index.php?title=La_Aventura_Original&action=edit&redlink=1'
p10
sb(dp11
sg0
(g4
g5
Ntp12
Rp13
(dp14
g9
S'/wiki/Adeline_Software_International'
p15
sb(dp16
g0
(g4
g5
Ntp17
Rp18
(dp19
g9
S'/wiki/Infogrames'
p20
sbg0
(cDirectedGraph
Arc
p21
c__builtin__
tuple
p22
(g13
g18
tp23
tp24
Rp25
sg0
(g4
g5
Ntp26
Rp27
(dp28
g9
S'/wiki/Little_Big_Adventure'
p29
sbg0
(g21
g22
(g13
g27
tp30
tp31
Rp32
ssg0
(g4
g5
Ntp33
Rp34
(dp35
g9
S'/w/index.php?title=Links:_Championship_Course_-_Bountiful_Golf_Course&action=edit&redlink=1'
p36
sb(dp37
sg0
(g4
g5
Ntp38
Rp39
(dp40
g9
S'/wiki/Litil_Divil'
p41
sb(dp42
g0
(g4
g5
Ntp43
Rp44
(dp45
g9
S'/wiki/Gremlin_Interactive'
p46
sbg0
(g21
g22
(g39
g44
tp47
tp48
Rp49
ssg0
(g4
g5
Ntp50
Rp51
(dp52
g9
S'/wiki/Lands_of_Lore:_The_Throne_of_Chaos'
p53
sb(dp54
g0
(g4
g5
Ntp55
Rp56
(dp57
g9
S'/wiki/MS-DOS'
p58
sbg0
(g21
g22
(g51
g56
tp59
tp60
Rp61
sg0
(g4
g5
Ntp62
Rp63
(dp64
g9
S'/wiki/Lands_of_Lore:_Guardians_of_Destiny'
p65
sbg0
(g21
g22
(g51
g63
tp66
tp67
Rp68
sg0
(g4
g5
Ntp69
Rp70
(dp71
g9
S'/wiki/Westwood_Studios'
p72
sbg0
(g21
g22
(g51
g70
tp73
tp74
Rp75
sg0
(g4
g5
Ntp76
Rp77
(dp78
g9
S'/wiki/Virgin_Interactive'
p79
sbg0
(g21
g22
(g51
g77
tp80
tp81
Rp82
ssg0
(g4
g5
Ntp83
Rp84
(dp85
g9
S'/wiki/Interplay_Entertainment'
p86
sb(dp87
g18
g0
(g21
g22
(g84
g18
tp88
tp89
Rp90
sg0
(g4
g5
Ntp91
Rp92
(dp93
g9
S'/wiki/Activision'
p94
sbg0
(g21
g22
(g84
g92
tp95
tp96
Rp97
ssg0
(g4
g5
Ntp98
Rp99
(dp100
g9
S'/wiki/Leisure_Suit_Larry_6:_Shape_Up_or_Slip_Out!'
p101
sb(dp102
g56
g0
(g21
g22
(g99
g56
tp103
tp104
Rp105
sg0
(g4
g5
Ntp106
Rp107
(dp108
g9
S'/wiki/Leisure_Suit_Larry_Goes_Looking_for_Love_(in_Several_Wrong_Places)'
p109
sbg0
(g21
g22
(g99
g107
tp110
tp111
Rp112
sg0
(g4
g5
Ntp113
Rp114
(dp115
g9
S'/wiki/Leisure_Suit_Larry_5:_Passionate_Patti_Does_a_Little_Undercover_Work'
p116
sbg0
(g21
g22
(g99
g114
tp117
tp118
Rp119
sg0
(g4
g5
Ntp120
Rp121
(dp122
g9
S'/wiki/Sierra_Entertainment'
p123
sbg0
(g21
g22
(g99
g121
tp124
tp125
Rp126
sg0
(g4
g5
Ntp127
Rp128
(dp129
g9
S'/wiki/Leisure_Suit_Larry_in_the_Land_of_the_Lounge_Lizards'
p130
sbg0
(g21
g22
(g99
g128
tp131
tp132
Rp133
ssg0
(g4
g5
Ntp134
Rp135
(dp136
g9
S'/wiki/Gremlin_Graphics'
p137
sb(dp138
g0
(g4
g5
Ntp139
Rp140
(dp141
g9
S'/wiki/Electronic_Arts'
p142
sbg0
(g21
g22
(g135
g140
tp143
tp144
Rp145
sg18
g0
(g21
g22
(g135
g18
tp146
tp147
Rp148
ssg0
(g4
g5
Ntp149
Rp150
(dp151
g9
S'/wiki/The_Last_Bounty_Hunter'
p152
sb(dp153
g0
(g4
g5
Ntp154
Rp155
(dp156
g9
S'/wiki/American_Laser_Games'
p157
sbg0
(g21
g22
(g150
g155
tp158
tp159
Rp160
ssg0
(g4
g5
Ntp161
Rp162
(dp163
g9
S'/wiki/Legends_of_Valour'
p164
sb(dp165
g0
(g4
g5
Ntp166
Rp167
(dp168
g9
S'/wiki/U.S._Gold'
p169
sbg0
(g21
g22
(g162
g167
tp170
tp171
Rp172
ssg0
(g4
g5
Ntp173
Rp174
(dp175
g9
S'/w/index.php?title=Land,_Sea_and_Air!&action=edit&redlink=1'
p176
sb(dp177
sg0
(g4
g5
Ntp178
Rp179
(dp180
g9
S'/w/index.php?title=Larry_Vales:_Traffic_Division&action=edit&redlink=1'
p181
sb(dp182
sg0
(g4
g5
Ntp183
Rp184
(dp185
g9
S'/w/index.php?title=Links:_Championship_Course_-_Prairie_Dunes&action=edit&redlink=1'
p186
sb(dp187
sg0
(g4
g5
Ntp188
Rp189
(dp190
g9
S'/w/index.php?title=Le_Fetiche_Maya&action=edit&redlink=1'
p191
sb(dp192
sg0
(g4
g5
Ntp193
Rp194
(dp195
g9
S'/wiki/The_Last_Ninja'
p196
sb(dp197
g92
g0
(g21
g22
(g194
g92
tp198
tp199
Rp200
sg0
(g4
g5
Ntp201
Rp202
(dp203
g9
S'/wiki/Last_Ninja_2'
p204
sbg0
(g21
g22
(g194
g202
tp205
tp206
Rp207
sg0
(g4
g5
Ntp208
Rp209
(dp210
g9
S'/wiki/System_3_(software_company)'
p211
sbg0
(g21
g22
(g194
g209
tp212
tp213
Rp214
sg56
g0
(g21
g22
(g194
g56
tp215
tp216
Rp217
ssg92
(dp218
g140
g0
(g21
g22
(g92
g140
tp219
tp220
Rp221
sg0
(g4
g5
Ntp222
Rp223
(dp224
g9
S'/wiki/Codemasters'
p225
sbg0
(g21
g22
(g92
g223
tp226
tp227
Rp228
sg84
g0
(g21
g22
(g92
g84
tp229
tp230
Rp231
sg0
(g4
g5
Ntp232
Rp233
(dp234
g9
S'/wiki/Infocom'
p235
sbg0
(g21
g22
(g92
g233
tp236
tp237
Rp238
sg121
g0
(g21
g22
(g92
g121
tp239
tp240
Rp241
ssg0
(g4
g5
Ntp242
Rp243
(dp244
g9
S'/wiki/Lords_of_the_Rising_Sun'
p245
sb(dp246
g56
g0
(g21
g22
(g243
g56
tp247
tp248
Rp249
sg0
(g4
g5
Ntp250
Rp251
(dp252
g9
S'/wiki/Cinemaware'
p253
sbg0
(g21
g22
(g243
g251
tp254
tp255
Rp256
ssg0
(g4
g5
Ntp257
Rp258
(dp259
g9
S'/wiki/Sony_Computer_Entertainment'
p260
sb(dp261
g0
(g4
g5
Ntp262
Rp263
(dp264
g9
S'/wiki/Sony_Imagesoft'
p265
sbg0
(g21
g22
(g258
g263
tp266
tp267
Rp268
ssg0
(g4
g5
Ntp269
Rp270
(dp271
g9
S'/wiki/Index_of_MS-DOS_games_(K)'
p272
sb(dp273
g0
(g4
g5
Ntp274
Rp275
(dp276
g9
S'/wiki/Index_of_MS-DOS_games_(M)'
p277
sbg0
(g21
g22
(g270
g275
tp278
tp279
Rp280
sg0
(g4
g5
Ntp281
Rp282
(dp283
g9
S'/wiki/Index_of_MS-DOS_games_(F)'
p284
sbg0
(g21
g22
(g270
g282
tp285
tp286
Rp287
sg0
(g4
g5
Ntp288
Rp289
(dp290
g9
S'/wiki/Index_of_MS-DOS_games_(G)'
p291
sbg0
(g21
g22
(g270
g289
tp292
tp293
Rp294
sg0
(g4
g5
Ntp295
Rp296
(dp297
g9
S'/wiki/Index_of_MS-DOS_games_(Y)'
p298
sbg0
(g21
g22
(g270
g296
tp299
tp300
Rp301
sg0
(g4
g5
Ntp302
Rp303
(dp304
g9
S'/wiki/Index_of_MS-DOS_games'
p305
sbg0
(g21
g22
(g270
g303
tp306
tp307
Rp308
sg0
(g4
g5
Ntp309
Rp310
(dp311
g9
S'/wiki/Kroz'
p312
sbg0
(g21
g22
(g270
g310
tp313
tp314
Rp315
sg0
(g4
g5
Ntp316
Rp317
(dp318
g9
S'/wiki/Index_of_MS-DOS_games_(H)'
p319
sbg0
(g21
g22
(g270
g317
tp320
tp321
Rp322
sg0
(g4
g5
Ntp323
Rp324
(dp325
g9
S'/wiki/Index_of_MS-DOS_games_(P)'
p326
sbg0
(g21
g22
(g270
g324
tp327
tp328
Rp329
sg0
(g4
g5
Ntp330
Rp331
(dp332
g9
S'/wiki/Index_of_MS-DOS_games_(D)'
p333
sbg0
(g21
g22
(g270
g331
tp334
tp335
Rp336
sg0
(g4
g5
Ntp337
Rp338
(dp339
g9
S'/wiki/Index_of_MS-DOS_games_(J)'
p340
sbg0
(g21
g22
(g270
g338
tp341
tp342
Rp343
sg0
(g4
g5
Ntp344
Rp345
(dp346
g9
S'/wiki/Index_of_MS-DOS_games_(N)'
p347
sbg0
(g21
g22
(g270
g345
tp348
tp349
Rp350
sg0
(g4
g5
Ntp351
Rp352
(dp353
g9
S'/wiki/Template:Index_footer'
p354
sbg0
(g21
g22
(g270
g352
tp355
tp356
Rp357
sg0
(g4
g5
Ntp358
Rp359
(dp360
g9
S'/wiki/Index_of_MS-DOS_games_(X)'
p361
sbg0
(g21
g22
(g270
g359
tp362
tp363
Rp364
sg167
g0
(g21
g22
(g270
g167
tp365
tp366
Rp367
sg56
g0
(g21
g22
(g270
g56
tp368
tp369
Rp370
sg0
(g4
g5
Ntp371
Rp372
(dp373
g9
S'/wiki/Mindscape'
p374
sbg0
(g21
g22
(g270
g372
tp375
tp376
Rp377
sg0
(g4
g5
Ntp378
Rp379
(dp380
g9
S'/wiki/Index_of_MS-DOS_games_(U)'
p381
sbg0
(g21
g22
(g270
g379
tp382
tp383
Rp384
sg140
g0
(g21
g22
(g270
g140
tp385
tp386
Rp387
sg0
(g4
g5
Ntp388
Rp389
(dp390
g9
S'/wiki/Index_of_MS-DOS_games_(Q)'
p391
sbg0
(g21
g22
(g270
g389
tp392
tp393
Rp394
sg0
(g4
g5
Ntp395
Rp396
(dp397
g9
S'/wiki/Index_of_MS-DOS_games_(T)'
p398
sbg0
(g21
g22
(g270
g396
tp399
tp400
Rp401
sg0
(g4
g5
Ntp402
Rp403
(dp404
g9
S'/wiki/Index_of_MS-DOS_games_(R)'
p405
sbg0
(g21
g22
(g270
g403
tp406
tp407
Rp408
sg0
(g4
g5
Ntp409
Rp410
(dp411
g9
S'/wiki/Index_of_MS-DOS_games_(B)'
p412
sbg0
(g21
g22
(g270
g410
tp413
tp414
Rp415
sg0
(g4
g5
Ntp416
Rp417
(dp418
g9
S'/wiki/Index_of_MS-DOS_games_(A)'
p419
sbg0
(g21
g22
(g270
g417
tp420
tp421
Rp422
sg0
(g4
g5
Ntp423
Rp424
(dp425
g9
S'/wiki/Cryo_Interactive'
p426
sbg0
(g21
g22
(g270
g424
tp427
tp428
Rp429
sg0
(g4
g5
Ntp430
Rp431
(dp432
g9
S'/wiki/Audiogenic'
p433
sbg0
(g21
g22
(g270
g431
tp434
tp435
Rp436
sg0
(g4
g5
Ntp437
Rp438
(dp439
g9
S'/wiki/Index_of_MS-DOS_games_(O)'
p440
sbg0
(g21
g22
(g270
g438
tp441
tp442
Rp443
sg0
(g4
g5
Ntp444
Rp445
(dp446
g9
S'/wiki/Data_East'
p447
sbg0
(g21
g22
(g270
g445
tp448
tp449
Rp450
sg0
(g4
g5
Ntp451
Rp452
(dp453
g9
S'/wiki/Template_talk:Index_footer'
p454
sbg0
(g21
g22
(g270
g452
tp455
tp456
Rp457
sg0
(g4
g5
Ntp458
Rp459
(dp460
g9
S'/wiki/Index_of_MS-DOS_games_(V)'
p461
sbg0
(g21
g22
(g270
g459
tp462
tp463
Rp464
sg0
(g4
g5
Ntp465
Rp466
(dp467
g9
S'/wiki/Index_of_MS-DOS_games_(0-9)'
p468
sbg0
(g21
g22
(g270
g466
tp469
tp470
Rp471
sg0
(g4
g5
Ntp472
Rp473
(dp474
g9
S'/wiki/Index_of_MS-DOS_games_(C)'
p475
sbg0
(g21
g22
(g270
g473
tp476
tp477
Rp478
sg223
g0
(g21
g22
(g270
g223
tp479
tp480
Rp481
sg0
(g4
g5
Ntp482
Rp483
(dp484
g9
S'/wiki/Index_of_MS-DOS_games_(Z)'
p485
sbg0
(g21
g22
(g270
g483
tp486
tp487
Rp488
sg0
(g4
g5
Ntp489
Rp490
(dp491
g9
S'/wiki/Level_9'
p492
sbg0
(g21
g22
(g270
g490
tp493
tp494
Rp495
sg0
(g4
g5
Ntp496
Rp497
(dp498
g9
S'/wiki/Scott_Miller_(entrepreneur)'
p499
sbg0
(g21
g22
(g270
g497
tp500
tp501
Rp502
sg0
(g4
g5
Ntp503
Rp504
(dp505
g9
S'/wiki/Index_of_MS-DOS_games_(W)'
p506
sbg0
(g21
g22
(g270
g504
tp507
tp508
Rp509
sg0
(g4
g5
Ntp510
Rp511
(dp512
g9
S'/wiki/Index_of_MS-DOS_games_(E)'
p513
sbg0
(g21
g22
(g270
g511
tp514
tp515
Rp516
sg0
(g4
g5
Ntp517
Rp518
(dp519
g9
S'/wiki/Index_of_MS-DOS_games_(S)'
p520
sbg0
(g21
g22
(g270
g518
tp521
tp522
Rp523
sg0
(g4
g5
Ntp524
Rp525
(dp526
g9
S'/wiki/Apogee_Software'
p527
sbg0
(g21
g22
(g270
g525
tp528
tp529
Rp530
sg0
(g4
g5
Ntp531
Rp532
(dp533
g9
S'//en.wikipedia.org/w/index.php?title=Template:Index_footer&action=edit'
p534
sbg0
(g21
g22
(g270
g532
tp535
tp536
Rp537
sg0
(g4
g5
Ntp538
Rp539
(dp540
g9
S'/wiki/Index_of_MS-DOS_games_(I)'
p541
sbg0
(g21
g22
(g270
g539
tp542
tp543
Rp544
sg84
g0
(g21
g22
(g270
g84
tp545
tp546
Rp547
sg121
g0
(g21
g22
(g270
g121
tp548
tp549
Rp550
sg92
g0
(g21
g22
(g270
g92
tp551
tp552
Rp553
sg18
g0
(g21
g22
(g270
g18
tp554
tp555
Rp556
sg0
(g4
g5
Ntp557
Rp558
(dp559
g9
S'/wiki/Br%C3%B8derbund'
p560
sbg0
(g21
g22
(g270
g558
tp561
tp562
Rp563
sg0
(g4
g5
Ntp564
Rp565
(dp566
g9
S'/wiki/SCi'
p567
sbg0
(g21
g22
(g270
g565
tp568
tp569
Rp570
sg251
g0
(g21
g22
(g270
g251
tp571
tp572
Rp573
ssg0
(g4
g5
Ntp574
Rp575
(dp576
g9
S'/wiki/Leather_Goddesses_of_Phobos_2:_Gas_Pump_Girls_Meet_the_Pulsating_Inconvenience_from_Planet_X!'
p577
sb(dp578
g92
g0
(g21
g22
(g575
g92
tp579
tp580
Rp581
sg233
g0
(g21
g22
(g575
g233
tp582
tp583
Rp584
sg0
(g4
g5
Ntp585
Rp586
(dp587
g9
S'/wiki/Leather_Goddesses_of_Phobos'
p588
sbg0
(g21
g22
(g575
g586
tp589
tp590
Rp591
ssg0
(g4
g5
Ntp592
Rp593
(dp594
g9
S'/wiki/Eurocom'
p595
sb(dp596
sg0
(g4
g5
Ntp597
Rp598
(dp599
g9
S'/wiki/Lakers_vs._Celtics_and_the_NBA_Playoffs'
p600
sb(dp601
g140
g0
(g21
g22
(g598
g140
tp602
tp603
Rp604
sg56
g0
(g21
g22
(g598
g56
tp605
tp606
Rp607
ssg0
(g4
g5
Ntp608
Rp609
(dp610
g9
S'/w/index.php?title=L5RC&action=edit&redlink=1'
p611
sb(dp612
sg324
(dp613
g275
g0
(g21
g22
(g324
g275
tp614
tp615
Rp616
sg282
g0
(g21
g22
(g324
g282
tp617
tp618
Rp619
sg0
(g4
g5
Ntp620
Rp621
(dp622
g9
S'/wiki/Ocean_Software'
p623
sbg0
(g21
g22
(g324
g621
tp624
tp625
Rp626
sg289
g0
(g21
g22
(g324
g289
tp627
tp628
Rp629
sg296
g0
(g21
g22
(g324
g296
tp630
tp631
Rp632
sg270
g0
(g21
g22
(g324
g270
tp633
tp634
Rp635
sg303
g0
(g21
g22
(g324
g303
tp636
tp637
Rp638
sg317
g0
(g21
g22
(g324
g317
tp639
tp640
Rp641
sg331
g0
(g21
g22
(g324
g331
tp642
tp643
Rp644
sg338
g0
(g21
g22
(g324
g338
tp645
tp646
Rp647
sg345
g0
(g21
g22
(g324
g345
tp648
tp649
Rp650
sg0
(g4
g5
Ntp651
Rp652
(dp653
g9
S'/wiki/Coktel_Vision'
p654
sbg0
(g21
g22
(g324
g652
tp655
tp656
Rp657
sg352
g0
(g21
g22
(g324
g352
tp658
tp659
Rp660
sg359
g0
(g21
g22
(g324
g359
tp661
tp662
Rp663
sg56
g0
(g21
g22
(g324
g56
tp664
tp665
Rp666
sg372
g0
(g21
g22
(g324
g372
tp667
tp668
Rp669
sg379
g0
(g21
g22
(g324
g379
tp670
tp671
Rp672
sg140
g0
(g21
g22
(g324
g140
tp673
tp674
Rp675
sg389
g0
(g21
g22
(g324
g389
tp676
tp677
Rp678
sg396
g0
(g21
g22
(g324
g396
tp679
tp680
Rp681
sg0
(g4
g5
Ntp682
Rp683
(dp684
g9
S'/wiki/Impressions_Games'
p685
sbg0
(g21
g22
(g324
g683
tp686
tp687
Rp688
sg403
g0
(g21
g22
(g324
g403
tp689
tp690
Rp691
sg410
g0
(g21
g22
(g324
g410
tp692
tp693
Rp694
sg417
g0
(g21
g22
(g324
g417
tp695
tp696
Rp697
sg135
g0
(g21
g22
(g324
g135
tp698
tp699
Rp700
sg233
g0
(g21
g22
(g324
g233
tp701
tp702
Rp703
sg438
g0
(g21
g22
(g324
g438
tp704
tp705
Rp706
sg44
g0
(g21
g22
(g324
g44
tp707
tp708
Rp709
sg445
g0
(g21
g22
(g324
g445
tp710
tp711
Rp712
sg0
(g4
g5
Ntp713
Rp714
(dp715
g9
S'/wiki/Psygnosis'
p716
sbg0
(g21
g22
(g324
g714
tp717
tp718
Rp719
sg459
g0
(g21
g22
(g324
g459
tp720
tp721
Rp722
sg466
g0
(g21
g22
(g324
g466
tp723
tp724
Rp725
sg473
g0
(g21
g22
(g324
g473
tp726
tp727
Rp728
sg483
g0
(g21
g22
(g324
g483
tp729
tp730
Rp731
sg452
g0
(g21
g22
(g324
g452
tp732
tp733
Rp734
sg504
g0
(g21
g22
(g324
g504
tp735
tp736
Rp737
sg511
g0
(g21
g22
(g324
g511
tp738
tp739
Rp740
sg0
(g4
g5
Ntp741
Rp742
(dp743
g9
S'/wiki/Access_Software'
p744
sbg0
(g21
g22
(g324
g742
tp745
tp746
Rp747
sg0
(g4
g5
Ntp748
Rp749
(dp750
g9
S'/wiki/Lucasfilm_Games'
p751
sbg0
(g21
g22
(g324
g749
tp752
tp753
Rp754
sg0
(g4
g5
Ntp755
Rp756
(dp757
g9
S'/wiki/Manley_%26_Associates'
p758
sbg0
(g21
g22
(g324
g756
tp759
tp760
Rp761
sg518
g0
(g21
g22
(g324
g518
tp762
tp763
Rp764
sg525
g0
(g21
g22
(g324
g525
tp765
tp766
Rp767
sg0
(g4
g5
Ntp768
Rp769
(dp770
g9
S'/wiki/Magnetic_Scrolls'
p771
sbg0
(g21
g22
(g324
g769
tp772
tp773
Rp774
sg539
g0
(g21
g22
(g324
g539
tp775
tp776
Rp777
sg0
(g4
g5
Ntp778
Rp779
(dp780
g9
S'/wiki/Koei'
p781
sbg0
(g21
g22
(g324
g779
tp782
tp783
Rp784
sg121
g0
(g21
g22
(g324
g121
tp785
tp786
Rp787
sg92
g0
(g21
g22
(g324
g92
tp788
tp789
Rp790
sg18
g0
(g21
g22
(g324
g18
tp791
tp792
Rp793
sg558
g0
(g21
g22
(g324
g558
tp794
tp795
Rp796
sg532
g0
(g21
g22
(g324
g532
tp797
tp798
Rp799
sg223
g0
(g21
g22
(g324
g223
tp800
tp801
Rp802
ssg0
(g4
g5
Ntp803
Rp804
(dp805
g9
S'/wiki/LineWars_II'
p806
sb(dp807
g56
g0
(g21
g22
(g804
g56
tp808
tp809
Rp810
sg0
(g4
g5
Ntp811
Rp812
(dp813
g9
S'/wiki/Safari_Software'
p814
sbg0
(g21
g22
(g804
g812
tp815
tp816
Rp817
ssg0
(g4
g5
Ntp818
Rp819
(dp820
g9
S'/wiki/Llamatron'
p821
sb(dp822
g56
g0
(g21
g22
(g819
g56
tp823
tp824
Rp825
sg0
(g4
g5
Ntp826
Rp827
(dp828
g9
S'/wiki/Llamasoft'
p829
sbg0
(g21
g22
(g819
g827
tp830
tp831
Rp832
sg0
(g4
g5
Ntp833
Rp834
(dp835
g9
S'/wiki/Jeff_Minter'
p836
sbg0
(g21
g22
(g819
g834
tp837
tp838
Rp839
ssg0
(g4
g5
Ntp840
Rp841
(dp842
g9
S'/w/index.php?title=Links:_Championship_Course_-_Innisbrook_-_Copperhead&action=edit&redlink=1'
p843
sb(dp844
sg128
(dp845
g56
g0
(g21
g22
(g128
g56
tp846
tp847
Rp848
sg114
g0
(g21
g22
(g128
g114
tp849
tp850
Rp851
sg99
g0
(g21
g22
(g128
g99
tp852
tp853
Rp854
sg121
g0
(g21
g22
(g128
g121
tp855
tp856
Rp857
sg107
g0
(g21
g22
(g128
g107
tp858
tp859
Rp860
ssg0
(g4
g5
Ntp861
Rp862
(dp863
g9
S'/w/index.php?title=Douglas_E._Smith&action=edit&redlink=1'
p864
sb(dp865
sg0
(g4
g5
Ntp866
Rp867
(dp868
g9
S'/w/index.php?title=Lamers_(video_game)&action=edit&redlink=1'
p869
sb(dp870
sg812
(dp871
g804
g0
(g21
g22
(g812
g804
tp872
tp873
Rp874
ssg167
(dp875
g749
g0
(g21
g22
(g167
g749
tp876
tp877
Rp878
ssg0
(g4
g5
Ntp879
Rp880
(dp881
g9
S'/w/index.php?title=Electronic_Design_Hannover&action=edit&redlink=1'
p882
sb(dp883
sg0
(g4
g5
Ntp884
Rp885
(dp886
g9
S'/w/index.php?title=Slade_3D_Software&action=edit&redlink=1'
p887
sb(dp888
sg0
(g4
g5
Ntp889
Rp890
(dp891
g9
S'/w/index.php?title=Love%27s_Fiery_Imbroglio&action=edit&redlink=1'
p892
sb(dp893
sg233
(dp894
g586
g0
(g21
g22
(g233
g586
tp895
tp896
Rp897
sg0
(g4
g5
Ntp898
Rp899
(dp900
g9
S'/wiki/The_Lurking_Horror'
p901
sbg0
(g21
g22
(g233
g899
tp902
tp903
Rp904
sg70
g0
(g21
g22
(g233
g70
tp905
tp906
Rp907
sg575
g0
(g21
g22
(g233
g575
tp908
tp909
Rp910
sg121
g0
(g21
g22
(g233
g121
tp911
tp912
Rp913
sg92
g0
(g21
g22
(g233
g92
tp914
tp915
Rp916
ssg0
(g4
g5
Ntp917
Rp918
(dp919
g9
S'/w/index.php?title=Les_Manley_in:_Lost_in_L.A.&action=edit&redlink=1'
p920
sb(dp921
sg621
(dp922
g18
g0
(g21
g22
(g621
g18
tp923
tp924
Rp925
sg0
(g4
g5
Ntp926
Rp927
(dp928
g9
S'/wiki/Lost_Patrol'
p929
sbg0
(g21
g22
(g621
g927
tp930
tp931
Rp932
sg445
g0
(g21
g22
(g621
g445
tp933
tp934
Rp935
sg0
(g4
g5
Ntp936
Rp937
(dp938
g9
S'/wiki/Lethal_Weapon_(video_game)'
p939
sbg0
(g21
g22
(g621
g937
tp940
tp941
Rp942
ssg0
(g4
g5
Ntp943
Rp944
(dp945
g9
S'/w/index.php?title=Lost_Dutchman%27s_Gold&action=edit&redlink=1'
p946
sb(dp947
sg263
(dp948
g714
g0
(g21
g22
(g263
g714
tp949
tp950
Rp951
sg0
(g4
g5
Ntp952
Rp953
(dp954
g9
S'/wiki/Bits_Studios'
p955
sbg0
(g21
g22
(g263
g953
tp956
tp957
Rp958
sg0
(g4
g5
Ntp959
Rp960
(dp961
g9
S'/wiki/Last_Action_Hero_(video_game)'
p962
sbg0
(g21
g22
(g263
g960
tp963
tp964
Rp965
sg621
g0
(g21
g22
(g263
g621
tp966
tp967
Rp968
ssg0
(g4
g5
Ntp969
Rp970
(dp971
g9
S'/w/index.php?title=Lupo_Alberto,_The_VideoGame&action=edit&redlink=1'
p972
sb(dp973
sg0
(g4
g5
Ntp974
Rp975
(dp976
g9
S'/w/index.php?title=Lollypop_(video_game)&action=edit&redlink=1'
p977
sb(dp978
sg0
(g4
g5
Ntp979
Rp980
(dp981
g9
S'/w/index.php?title=Links:_Championship_Course_-_Troon_North&action=edit&redlink=1'
p982
sb(dp983
sg756
(dp984
g140
g0
(g21
g22
(g756
g140
tp985
tp986
Rp987
sg92
g0
(g21
g22
(g756
g92
tp988
tp989
Rp990
ssg0
(g4
g5
Ntp991
Rp992
(dp993
g9
S'/wiki/Lightspeed_(video_game)'
p994
sb(dp995
g0
(g4
g5
Ntp996
Rp997
(dp998
g9
S'/wiki/MPS_Labs'
p999
sbg0
(g21
g22
(g992
g997
tp1000
tp1001
Rp1002
sg0
(g4
g5
Ntp1003
Rp1004
(dp1005
g9
S'/wiki/Microprose'
p1006
sbg0
(g21
g22
(g992
g1004
tp1007
tp1008
Rp1009
ssg0
(g4
g5
Ntp1010
Rp1011
(dp1012
g9
S'/w/index.php?title=Links:_Championship_Course_-_Firestone_Country_Club&action=edit&redlink=1'
p1013
sb(dp1014
sg0
(g4
g5
Ntp1015
Rp1016
(dp1017
g9
S'/w/index.php?title=Links:_Championship_Course_-_Pebble_Beach&action=edit&redlink=1'
p1018
sb(dp1019
sg0
(g4
g5
Ntp1020
Rp1021
(dp1022
g9
S'/w/index.php?title=Linley_Henzell&action=edit&redlink=1'
p1023
sb(dp1024
sg558
(dp1025
g0
(g4
g5
Ntp1026
Rp1027
(dp1028
g9
S'/wiki/The_Last_Express'
p1029
sbg0
(g21
g22
(g558
g1027
tp1030
tp1031
Rp1032
sg0
(g4
g5
Ntp1033
Rp1034
(dp1035
g9
S'/wiki/Lode_Runner'
p1036
sbg0
(g21
g22
(g558
g1034
tp1037
tp1038
Rp1039
sg372
g0
(g21
g22
(g558
g372
tp1040
tp1041
Rp1042
ssg0
(g4
g5
Ntp1043
Rp1044
(dp1045
g9
S'/wiki/Liberty_or_Death_(video_game)'
p1046
sb(dp1047
g779
g0
(g21
g22
(g1044
g779
tp1048
tp1049
Rp1050
ssg0
(g4
g5
Ntp1051
Rp1052
(dp1053
g9
S'/w/index.php?title=Land,_Sea_and_Air_2!&action=edit&redlink=1'
p1054
sb(dp1055
sg0
(g4
g5
Ntp1056
Rp1057
(dp1058
g9
S'/wiki/The_Light_Corridor'
p1059
sb(dp1060
g18
g0
(g21
g22
(g1057
g18
tp1061
tp1062
Rp1063
ssg0
(g4
g5
Ntp1064
Rp1065
(dp1066
g9
S'/w/index.php?title=Patrick_Aalto&action=edit&redlink=1'
p1067
sb(dp1068
sg0
(g4
g5
Ntp1069
Rp1070
(dp1071
g9
S'/w/index.php?title=La_Colmena_(video_game)&action=edit&redlink=1'
p1072
sb(dp1073
sg77
(dp1074
g70
g0
(g21
g22
(g77
g70
tp1075
tp1076
Rp1077
sg0
(g4
g5
Ntp1078
Rp1079
(dp1080
g9
S'/wiki/The_Lion_King_(video_game)'
p1081
sbg0
(g21
g22
(g77
g1079
tp1082
tp1083
Rp1084
ssg0
(g4
g5
Ntp1085
Rp1086
(dp1087
g9
S'/w/index.php?title=Magnetic_Images&action=edit&redlink=1'
p1088
sb(dp1089
sg0
(g4
g5
Ntp1090
Rp1091
(dp1092
g9
S'/wiki/EduWare'
p1093
sb(dp1094
g0
(g4
g5
Ntp1095
Rp1096
(dp1097
g9
S'/wiki/Electric_Transit_(software_company)'
p1098
sbg0
(g21
g22
(g1091
g1096
tp1099
tp1100
Rp1101
sg121
g0
(g21
g22
(g1091
g121
tp1102
tp1103
Rp1104
ssg0
(g4
g5
Ntp1105
Rp1106
(dp1107
g9
S'/w/index.php?title=Last_Rites_(video_game)&action=edit&redlink=1'
p1108
sb(dp1109
sg0
(g4
g5
Ntp1110
Rp1111
(dp1112
g9
S'/wiki/Loom_(video_game)'
p1113
sb(dp1114
g749
g0
(g21
g22
(g1111
g749
tp1115
tp1116
Rp1117
sg233
g0
(g21
g22
(g1111
g233
tp1118
tp1119
Rp1120
ssg779
(dp1121
g1044
g0
(g21
g22
(g779
g1044
tp1122
tp1123
Rp1124
ssg0
(g4
g5
Ntp1125
Rp1126
(dp1127
g9
S'/wiki/Target_Games'
p1128
sb(dp1129
sg0
(g4
g5
Ntp1130
Rp1131
(dp1132
g9
S'/wiki/Lunar_Command'
p1133
sb(dp1134
g56
g0
(g21
g22
(g1131
g56
tp1135
tp1136
Rp1137
ssg0
(g4
g5
Ntp1138
Rp1139
(dp1140
g9
S'/w/index.php?title=Laser_Surgeon:_The_Microscopic_Mission&action=edit&redlink=1'
p1141
sb(dp1142
sg0
(g4
g5
Ntp1143
Rp1144
(dp1145
g9
S'/w/index.php?title=La_Corona_M%C3%A1gica&action=edit&redlink=1'
p1146
sb(dp1147
sg310
(dp1148
g56
g0
(g21
g22
(g310
g56
tp1149
tp1150
Rp1151
ssg0
(g4
g5
Ntp1152
Rp1153
(dp1154
g9
S'/wiki/Quest_Software'
p1155
sb(dp1156
sg0
(g4
g5
Ntp1157
Rp1158
(dp1159
g9
S'/wiki/Lords_of_Chaos_(video_game)'
p1160
sb(dp1161
g0
(g4
g5
Ntp1162
Rp1163
(dp1164
g9
S'/wiki/Mythos_Games'
p1165
sbg0
(g21
g22
(g1158
g1163
tp1166
tp1167
Rp1168
ssg997
(dp1169
g714
g0
(g21
g22
(g997
g714
tp1170
tp1171
Rp1172
sg92
g0
(g21
g22
(g997
g92
tp1173
tp1174
Rp1175
ssg0
(g4
g5
Ntp1176
Rp1177
(dp1178
g9
S'/w/index.php?title=Links:_The_Challenge_of_Golf&action=edit&redlink=1'
p1179
sb(dp1180
sg0
(g4
g5
Ntp1181
Rp1182
(dp1183
g9
S'/wiki/Life_%26_Death'
p1184
sb(dp1185
sg0
(g4
g5
Ntp1186
Rp1187
(dp1188
g9
S'/wiki/The_Lost_Files_of_Sherlock_Holmes#The_Case_of_the_Serrated_Scalpel'
p1189
sb(dp1190
g140
g0
(g21
g22
(g1187
g140
tp1191
tp1192
Rp1193
sg0
(g4
g5
Ntp1194
Rp1195
(dp1196
g9
S'/wiki/The_Lost_Files_of_Sherlock_Holmes#The_Case_of_the_Rose_Tattoo'
p1197
sbg0
(g21
g22
(g1187
g1195
tp1198
tp1199
Rp1200
sg56
g0
(g21
g22
(g1187
g56
tp1201
tp1202
Rp1203
ssg0
(g4
g5
Ntp1204
Rp1205
(dp1206
g9
S'/w/index.php?title=Links:_Championship_Course_-_Hyatt_Dorado_Beach_Resort&action=edit&redlink=1'
p1207
sb(dp1208
sg0
(g4
g5
Ntp1209
Rp1210
(dp1211
g9
S'/wiki/Opera_Soft'
p1212
sb(dp1213
g0
(g4
g5
Ntp1214
Rp1215
(dp1216
g9
S'/wiki/La_Abad%C3%ADa_del_Crimen'
p1217
sbg0
(g21
g22
(g1210
g1215
tp1218
tp1219
Rp1220
sg0
(g4
g5
Ntp1221
Rp1222
(dp1223
g9
S'/wiki/The_Last_Mission_(video_game)'
p1224
sbg0
(g21
g22
(g1210
g1222
tp1225
tp1226
Rp1227
ssg202
(dp1228
g92
g0
(g21
g22
(g202
g92
tp1229
tp1230
Rp1231
sg209
g0
(g21
g22
(g202
g209
tp1232
tp1233
Rp1234
sg194
g0
(g21
g22
(g202
g194
tp1235
tp1236
Rp1237
sg621
g0
(g21
g22
(g202
g621
tp1238
tp1239
Rp1240
ssg70
(dp1241
g140
g0
(g21
g22
(g70
g140
tp1242
tp1243
Rp1244
sg233
g0
(g21
g22
(g70
g233
tp1245
tp1246
Rp1247
sg0
(g4
g5
Ntp1248
Rp1249
(dp1250
g9
S'/wiki/The_Legend_of_Kyrandia'
p1251
sbg0
(g21
g22
(g70
g1249
tp1252
tp1253
Rp1254
sg1079
g0
(g21
g22
(g70
g1079
tp1255
tp1256
Rp1257
sg77
g0
(g21
g22
(g70
g77
tp1258
tp1259
Rp1260
ssg140
(dp1261
g0
(g4
g5
Ntp1262
Rp1263
(dp1264
g9
S'/wiki/Ariolasoft'
p1265
sbg0
(g21
g22
(g140
g1263
tp1266
tp1267
Rp1268
sg70
g0
(g21
g22
(g140
g70
tp1269
tp1270
Rp1271
sg77
g0
(g21
g22
(g140
g77
tp1272
tp1273
Rp1274
sg92
g0
(g21
g22
(g140
g92
tp1275
tp1276
Rp1277
sg84
g0
(g21
g22
(g140
g84
tp1278
tp1279
Rp1280
sg0
(g4
g5
Ntp1281
Rp1282
(dp1283
g9
S'/wiki/THQ'
p1284
sbg0
(g21
g22
(g140
g1282
tp1285
tp1286
Rp1287
ssg223
(dp1288
g140
g0
(g21
g22
(g223
g140
tp1289
tp1290
Rp1291
sg121
g0
(g21
g22
(g223
g121
tp1292
tp1293
Rp1294
sg258
g0
(g21
g22
(g223
g258
tp1295
tp1296
Rp1297
ssg0
(g4
g5
Ntp1298
Rp1299
(dp1300
g9
S'/w/index.php?title=Lords_of_Doom&action=edit&redlink=1'
p1301
sb(dp1302
sg0
(g4
g5
Ntp1303
Rp1304
(dp1305
g9
S'/wiki/L%27Empereur'
p1306
sb(dp1307
g779
g0
(g21
g22
(g1304
g779
tp1308
tp1309
Rp1310
ssg0
(g4
g5
Ntp1311
Rp1312
(dp1313
g9
S'/w/index.php?title=Wesson_International&action=edit&redlink=1'
p1314
sb(dp1315
sg490
(dp1316
g0
(g4
g5
Ntp1317
Rp1318
(dp1319
g9
S'/wiki/Mandarin_Software'
p1320
sbg0
(g21
g22
(g490
g1318
tp1321
tp1322
Rp1323
sg251
g0
(g21
g22
(g490
g251
tp1324
tp1325
Rp1326
sg621
g0
(g21
g22
(g490
g621
tp1327
tp1328
Rp1329
ssg0
(g4
g5
Ntp1330
Rp1331
(dp1332
g9
S'/wiki/Lost_in_Time_(video_game)'
p1333
sb(dp1334
g56
g0
(g21
g22
(g1331
g56
tp1335
tp1336
Rp1337
sg652
g0
(g21
g22
(g1331
g652
tp1338
tp1339
Rp1340
ssg1318
(dp1341
g18
g0
(g21
g22
(g1318
g18
tp1342
tp1343
Rp1344
ssg525
(dp1345
sg0
(g4
g5
Ntp1346
Rp1347
(dp1348
g9
S'/w/index.php?title=Life_in_the_Fast_Lane_(video_game)&action=edit&redlink=1'
p1349
sb(dp1350
sg0
(g4
g5
Ntp1351
Rp1352
(dp1353
g9
S'/w/index.php?title=Luigi_en_Circusland&action=edit&redlink=1'
p1354
sb(dp1355
sg0
(g4
g5
Ntp1356
Rp1357
(dp1358
g9
S'/wiki/Little_Monster_at_School'
p1359
sb(dp1360
g558
g0
(g21
g22
(g1357
g558
tp1361
tp1362
Rp1363
ssg0
(g4
g5
Ntp1364
Rp1365
(dp1366
g9
S'/w/index.php?title=Pixel_Painters&action=edit&redlink=1'
p1367
sb(dp1368
sg0
(g4
g5
Ntp1369
Rp1370
(dp1371
g9
S'/w/index.php?title=Links:_Championship_Course_-_Castlepines&action=edit&redlink=1'
p1372
sb(dp1373
sg0
(g4
g5
Ntp1374
Rp1375
(dp1376
g9
S'/wiki/Low_Blow'
p1377
sb(dp1378
sg452
(dp1379
sg0
(g4
g5
Ntp1380
Rp1381
(dp1382
g9
S'/w/index.php?title=Synthetic_Dimensions&action=edit&redlink=1'
p1383
sb(dp1384
sg652
(dp1385
g121
g0
(g21
g22
(g652
g121
tp1386
tp1387
Rp1388
sg1331
g0
(g21
g22
(g652
g1331
tp1389
tp1390
Rp1391
ssg0
(g4
g5
Ntp1392
Rp1393
(dp1394
g9
S'/w/index.php?title=Don_Laabs&action=edit&redlink=1'
p1395
sb(dp1396
sg410
(dp1397
g275
g0
(g21
g22
(g410
g275
tp1398
tp1399
Rp1400
sg282
g0
(g21
g22
(g410
g282
tp1401
tp1402
Rp1403
sg621
g0
(g21
g22
(g410
g621
tp1404
tp1405
Rp1406
sg289
g0
(g21
g22
(g410
g289
tp1407
tp1408
Rp1409
sg296
g0
(g21
g22
(g410
g296
tp1410
tp1411
Rp1412
sg270
g0
(g21
g22
(g410
g270
tp1413
tp1414
Rp1415
sg303
g0
(g21
g22
(g410
g303
tp1416
tp1417
Rp1418
sg317
g0
(g21
g22
(g410
g317
tp1419
tp1420
Rp1421
sg324
g0
(g21
g22
(g410
g324
tp1422
tp1423
Rp1424
sg70
g0
(g21
g22
(g410
g70
tp1425
tp1426
Rp1427
sg331
g0
(g21
g22
(g410
g331
tp1428
tp1429
Rp1430
sg338
g0
(g21
g22
(g410
g338
tp1431
tp1432
Rp1433
sg345
g0
(g21
g22
(g410
g345
tp1434
tp1435
Rp1436
sg652
g0
(g21
g22
(g410
g652
tp1437
tp1438
Rp1439
sg352
g0
(g21
g22
(g410
g352
tp1440
tp1441
Rp1442
sg359
g0
(g21
g22
(g410
g359
tp1443
tp1444
Rp1445
sg56
g0
(g21
g22
(g410
g56
tp1446
tp1447
Rp1448
sg379
g0
(g21
g22
(g410
g379
tp1449
tp1450
Rp1451
sg140
g0
(g21
g22
(g410
g140
tp1452
tp1453
Rp1454
sg389
g0
(g21
g22
(g410
g389
tp1455
tp1456
Rp1457
sg396
g0
(g21
g22
(g410
g396
tp1458
tp1459
Rp1460
sg683
g0
(g21
g22
(g410
g683
tp1461
tp1462
Rp1463
sg403
g0
(g21
g22
(g410
g403
tp1464
tp1465
Rp1466
sg372
g0
(g21
g22
(g410
g372
tp1467
tp1468
Rp1469
sg417
g0
(g21
g22
(g410
g417
tp1470
tp1471
Rp1472
sg0
(g4
g5
Ntp1473
Rp1474
(dp1475
g9
S'/wiki/DMA_Design'
p1476
sbg0
(g21
g22
(g410
g1474
tp1477
tp1478
Rp1479
sg0
(g4
g5
Ntp1480
Rp1481
(dp1482
g9
S'/wiki/Software_Toolworks'
p1483
sbg0
(g21
g22
(g410
g1481
tp1484
tp1485
Rp1486
sg233
g0
(g21
g22
(g410
g233
tp1487
tp1488
Rp1489
sg438
g0
(g21
g22
(g410
g438
tp1490
tp1491
Rp1492
sg593
g0
(g21
g22
(g410
g593
tp1493
tp1494
Rp1495
sg445
g0
(g21
g22
(g410
g445
tp1496
tp1497
Rp1498
sg452
g0
(g21
g22
(g410
g452
tp1499
tp1500
Rp1501
sg714
g0
(g21
g22
(g410
g714
tp1502
tp1503
Rp1504
sg263
g0
(g21
g22
(g410
g263
tp1505
tp1506
Rp1507
sg459
g0
(g21
g22
(g410
g459
tp1508
tp1509
Rp1510
sg466
g0
(g21
g22
(g410
g466
tp1511
tp1512
Rp1513
sg473
g0
(g21
g22
(g410
g473
tp1514
tp1515
Rp1516
sg223
g0
(g21
g22
(g410
g223
tp1517
tp1518
Rp1519
sg483
g0
(g21
g22
(g410
g483
tp1520
tp1521
Rp1522
sg0
(g4
g5
Ntp1523
Rp1524
(dp1525
g9
S'/wiki/Revolution_Software'
p1526
sbg0
(g21
g22
(g410
g1524
tp1527
tp1528
Rp1529
sg504
g0
(g21
g22
(g410
g504
tp1530
tp1531
Rp1532
sg511
g0
(g21
g22
(g410
g511
tp1533
tp1534
Rp1535
sg84
g0
(g21
g22
(g410
g84
tp1536
tp1537
Rp1538
sg258
g0
(g21
g22
(g410
g258
tp1539
tp1540
Rp1541
sg518
g0
(g21
g22
(g410
g518
tp1542
tp1543
Rp1544
sg525
g0
(g21
g22
(g410
g525
tp1545
tp1546
Rp1547
sg539
g0
(g21
g22
(g410
g539
tp1548
tp1549
Rp1550
sg779
g0
(g21
g22
(g410
g779
tp1551
tp1552
Rp1553
sg121
g0
(g21
g22
(g410
g121
tp1554
tp1555
Rp1556
sg92
g0
(g21
g22
(g410
g92
tp1557
tp1558
Rp1559
sg18
g0
(g21
g22
(g410
g18
tp1560
tp1561
Rp1562
sg558
g0
(g21
g22
(g410
g558
tp1563
tp1564
Rp1565
sg532
g0
(g21
g22
(g410
g532
tp1566
tp1567
Rp1568
sg77
g0
(g21
g22
(g410
g77
tp1569
tp1570
Rp1571
ssg0
(g4
g5
Ntp1572
Rp1573
(dp1574
g9
S'/wiki/The_Lost_Vikings'
p1575
sb(dp1576
g84
g0
(g21
g22
(g1573
g84
tp1577
tp1578
Rp1579
sg56
g0
(g21
g22
(g1573
g56
tp1580
tp1581
Rp1582
ssg0
(g4
g5
Ntp1583
Rp1584
(dp1585
g9
S'/w/index.php?title=Lost_Crown_of_Queen_Anne,_The&action=edit&redlink=1'
p1586
sb(dp1587
sg0
(g4
g5
Ntp1588
Rp1589
(dp1590
g9
S'/wiki/Lighthouse:_The_Dark_Being'
p1591
sb(dp1592
sg0
(g4
g5
Ntp1593
Rp1594
(dp1595
g9
S'/w/index.php?title=Luigi_%26_Spaghetti&action=edit&redlink=1'
p1596
sb(dp1597
sg0
(g4
g5
Ntp1598
Rp1599
(dp1600
g9
S'/w/index.php?title=Froggman&action=edit&redlink=1'
p1601
sb(dp1602
sg1004
(dp1603
g0
(g4
g5
Ntp1604
Rp1605
(dp1606
g9
S'/wiki/Sanctuary_Woods'
p1607
sbg0
(g21
g22
(g1004
g1605
tp1608
tp1609
Rp1610
sg92
g0
(g21
g22
(g1004
g92
tp1611
tp1612
Rp1613
sg714
g0
(g21
g22
(g1004
g714
tp1614
tp1615
Rp1616
ssg0
(g4
g5
Ntp1617
Rp1618
(dp1619
g9
S'/wiki/Loopz'
p1620
sb(dp1621
g953
g0
(g21
g22
(g1618
g953
tp1622
tp1623
Rp1624
sg431
g0
(g21
g22
(g1618
g431
tp1625
tp1626
Rp1627
ssg0
(g4
g5
Ntp1628
Rp1629
(dp1630
g9
S'/w/index.php?title=Laser_Light&action=edit&redlink=1'
p1631
sb(dp1632
sg0
(g4
g5
Ntp1633
Rp1634
(dp1635
g9
S'/w/index.php?title=Presage_(video_game)&action=edit&redlink=1'
p1636
sb(dp1637
sg0
(g4
g5
Ntp1638
Rp1639
(dp1640
g9
S'/w/index.php?title=Larry_Vales_II:_Dead_Girls_are_Easy&action=edit&redlink=1'
p1641
sb(dp1642
sg0
(g4
g5
Ntp1643
Rp1644
(dp1645
g9
S'/w/index.php?title=Links:_Championship_Course_-_Mauna_Kea&action=edit&redlink=1'
p1646
sb(dp1647
sg0
(g4
g5
Ntp1648
Rp1649
(dp1650
g9
S'/w/index.php?title=Dark_Technologies&action=edit&redlink=1'
p1651
sb(dp1652
sg0
(g4
g5
Ntp1653
Rp1654
(dp1655
g9
S'/wiki/Group_SNE'
p1656
sb(dp1657
sg27
(dp1658
g140
g0
(g21
g22
(g27
g140
tp1659
tp1660
Rp1661
sg56
g0
(g21
g22
(g27
g56
tp1662
tp1663
Rp1664
sg13
g0
(g21
g22
(g27
g13
tp1665
tp1666
Rp1667
sg92
g0
(g21
g22
(g27
g92
tp1668
tp1669
Rp1670
ssg0
(g4
g5
Ntp1671
Rp1672
(dp1673
g9
S'/wiki/Lords_of_Conquest'
p1674
sb(dp1675
g140
g0
(g21
g22
(g1672
g140
tp1676
tp1677
Rp1678
ssg0
(g4
g5
Ntp1679
Rp1680
(dp1681
g9
S'/wiki/LHX_Attack_Chopper'
p1682
sb(dp1683
g140
g0
(g21
g22
(g1680
g140
tp1684
tp1685
Rp1686
sg56
g0
(g21
g22
(g1680
g56
tp1687
tp1688
Rp1689
ssg0
(g4
g5
Ntp1690
Rp1691
(dp1692
g9
S'/w/index.php?title=Locomotion_(DOS_game)&action=edit&redlink=1'
p1693
sb(dp1694
sg1524
(dp1695
g258
g0
(g21
g22
(g1524
g258
tp1696
tp1697
Rp1698
sg1282
g0
(g21
g22
(g1524
g1282
tp1699
tp1700
Rp1701
sg0
(g4
g5
Ntp1702
Rp1703
(dp1704
g9
S'/wiki/Lure_of_the_Temptress'
p1705
sbg0
(g21
g22
(g1524
g1703
tp1706
tp1707
Rp1708
sg77
g0
(g21
g22
(g1524
g77
tp1709
tp1710
Rp1711
ssg424
(dp1712
g18
g0
(g21
g22
(g424
g18
tp1713
tp1714
Rp1715
sg0
(g4
g5
Ntp1716
Rp1717
(dp1718
g9
S'/wiki/Lost_Eden'
p1719
sbg0
(g21
g22
(g424
g1717
tp1720
tp1721
Rp1722
ssg0
(g4
g5
Ntp1723
Rp1724
(dp1725
g9
S'/w/index.php?title=Lost_Tribe,_The&action=edit&redlink=1'
p1726
sb(dp1727
sg0
(g4
g5
Ntp1728
Rp1729
(dp1730
g9
S'/w/index.php?title=Blade_Software&action=edit&redlink=1'
p1731
sb(dp1732
sg0
(g4
g5
Ntp1733
Rp1734
(dp1735
g9
S'/wiki/Silicon_%26_Synapse'
p1736
sb(dp1737
g1573
g0
(g21
g22
(g1734
g1573
tp1738
tp1739
Rp1740
sg84
g0
(g21
g22
(g1734
g84
tp1741
tp1742
Rp1743
sg121
g0
(g21
g22
(g1734
g121
tp1744
tp1745
Rp1746
sg92
g0
(g21
g22
(g1734
g92
tp1747
tp1748
Rp1749
ssg1717
(dp1750
g56
g0
(g21
g22
(g1717
g56
tp1751
tp1752
Rp1753
sg424
g0
(g21
g22
(g1717
g424
tp1754
tp1755
Rp1756
sg77
g0
(g21
g22
(g1717
g77
tp1757
tp1758
Rp1759
ssg473
(dp1760
g275
g0
(g21
g22
(g473
g275
tp1761
tp1762
Rp1763
sg352
g0
(g21
g22
(g473
g352
tp1764
tp1765
Rp1766
sg282
g0
(g21
g22
(g473
g282
tp1767
tp1768
Rp1769
sg621
g0
(g21
g22
(g473
g621
tp1770
tp1771
Rp1772
sg289
g0
(g21
g22
(g473
g289
tp1773
tp1774
Rp1775
sg296
g0
(g21
g22
(g473
g296
tp1776
tp1777
Rp1778
sg270
g0
(g21
g22
(g473
g270
tp1779
tp1780
Rp1781
sg303
g0
(g21
g22
(g473
g303
tp1782
tp1783
Rp1784
sg310
g0
(g21
g22
(g473
g310
tp1785
tp1786
Rp1787
sg317
g0
(g21
g22
(g473
g317
tp1788
tp1789
Rp1790
sg324
g0
(g21
g22
(g473
g324
tp1791
tp1792
Rp1793
sg70
g0
(g21
g22
(g473
g70
tp1794
tp1795
Rp1796
sg331
g0
(g21
g22
(g473
g331
tp1797
tp1798
Rp1799
sg338
g0
(g21
g22
(g473
g338
tp1800
tp1801
Rp1802
sg345
g0
(g21
g22
(g473
g345
tp1803
tp1804
Rp1805
sg0
(g4
g5
Ntp1806
Rp1807
(dp1808
g9
S'/wiki/Pie_in_the_Sky_(game_engine)'
p1809
sbg0
(g21
g22
(g473
g1807
tp1810
tp1811
Rp1812
sg359
g0
(g21
g22
(g473
g359
tp1813
tp1814
Rp1815
sg167
g0
(g21
g22
(g473
g167
tp1816
tp1817
Rp1818
sg56
g0
(g21
g22
(g473
g56
tp1819
tp1820
Rp1821
sg372
g0
(g21
g22
(g473
g372
tp1822
tp1823
Rp1824
sg379
g0
(g21
g22
(g473
g379
tp1825
tp1826
Rp1827
sg389
g0
(g21
g22
(g473
g389
tp1828
tp1829
Rp1830
sg396
g0
(g21
g22
(g473
g396
tp1831
tp1832
Rp1833
sg683
g0
(g21
g22
(g473
g683
tp1834
tp1835
Rp1836
sg403
g0
(g21
g22
(g473
g403
tp1837
tp1838
Rp1839
sg410
g0
(g21
g22
(g473
g410
tp1840
tp1841
Rp1842
sg417
g0
(g21
g22
(g473
g417
tp1843
tp1844
Rp1845
sg1474
g0
(g21
g22
(g473
g1474
tp1846
tp1847
Rp1848
sg1481
g0
(g21
g22
(g473
g1481
tp1849
tp1850
Rp1851
sg233
g0
(g21
g22
(g473
g233
tp1852
tp1853
Rp1854
sg438
g0
(g21
g22
(g473
g438
tp1855
tp1856
Rp1857
sg445
g0
(g21
g22
(g473
g445
tp1858
tp1859
Rp1860
sg155
g0
(g21
g22
(g473
g155
tp1861
tp1862
Rp1863
sg714
g0
(g21
g22
(g473
g714
tp1864
tp1865
Rp1866
sg459
g0
(g21
g22
(g473
g459
tp1867
tp1868
Rp1869
sg466
g0
(g21
g22
(g473
g466
tp1870
tp1871
Rp1872
sg140
g0
(g21
g22
(g473
g140
tp1873
tp1874
Rp1875
sg223
g0
(g21
g22
(g473
g223
tp1876
tp1877
Rp1878
sg483
g0
(g21
g22
(g473
g483
tp1879
tp1880
Rp1881
sg452
g0
(g21
g22
(g473
g452
tp1882
tp1883
Rp1884
sg504
g0
(g21
g22
(g473
g504
tp1885
tp1886
Rp1887
sg511
g0
(g21
g22
(g473
g511
tp1888
tp1889
Rp1890
sg742
g0
(g21
g22
(g473
g742
tp1891
tp1892
Rp1893
sg518
g0
(g21
g22
(g473
g518
tp1894
tp1895
Rp1896
sg525
g0
(g21
g22
(g473
g525
tp1897
tp1898
Rp1899
sg769
g0
(g21
g22
(g473
g769
tp1900
tp1901
Rp1902
sg532
g0
(g21
g22
(g473
g532
tp1903
tp1904
Rp1905
sg539
g0
(g21
g22
(g473
g539
tp1906
tp1907
Rp1908
sg121
g0
(g21
g22
(g473
g121
tp1909
tp1910
Rp1911
sg92
g0
(g21
g22
(g473
g92
tp1912
tp1913
Rp1914
sg18
g0
(g21
g22
(g473
g18
tp1915
tp1916
Rp1917
sg558
g0
(g21
g22
(g473
g558
tp1918
tp1919
Rp1920
sg565
g0
(g21
g22
(g473
g565
tp1921
tp1922
Rp1923
sg77
g0
(g21
g22
(g473
g77
tp1924
tp1925
Rp1926
ssg0
(g4
g5
Ntp1927
Rp1928
(dp1929
g9
S'/w/index.php?title=Leyendas_de_Lhodrye:_La_Luz_del_Druida&action=edit&redlink=1'
p1930
sb(dp1931
sg331
(dp1932
g275
g0
(g21
g22
(g331
g275
tp1933
tp1934
Rp1935
sg282
g0
(g21
g22
(g331
g282
tp1936
tp1937
Rp1938
sg0
(g4
g5
Ntp1939
Rp1940
(dp1941
g9
S'/wiki/Chris_Wild'
p1942
sbg0
(g21
g22
(g331
g1940
tp1943
tp1944
Rp1945
sg289
g0
(g21
g22
(g331
g289
tp1946
tp1947
Rp1948
sg270
g0
(g21
g22
(g331
g270
tp1949
tp1950
Rp1951
sg303
g0
(g21
g22
(g331
g303
tp1952
tp1953
Rp1954
sg310
g0
(g21
g22
(g331
g310
tp1955
tp1956
Rp1957
sg317
g0
(g21
g22
(g331
g317
tp1958
tp1959
Rp1960
sg324
g0
(g21
g22
(g331
g324
tp1961
tp1962
Rp1963
sg70
g0
(g21
g22
(g331
g70
tp1964
tp1965
Rp1966
sg296
g0
(g21
g22
(g331
g296
tp1967
tp1968
Rp1969
sg338
g0
(g21
g22
(g331
g338
tp1970
tp1971
Rp1972
sg0
(g4
g5
Ntp1973
Rp1974
(dp1975
g9
S'/wiki/Walt_Disney_Computer_Software'
p1976
sbg0
(g21
g22
(g331
g1974
tp1977
tp1978
Rp1979
sg345
g0
(g21
g22
(g331
g345
tp1980
tp1981
Rp1982
sg359
g0
(g21
g22
(g331
g359
tp1983
tp1984
Rp1985
sg167
g0
(g21
g22
(g331
g167
tp1986
tp1987
Rp1988
sg56
g0
(g21
g22
(g331
g56
tp1989
tp1990
Rp1991
sg372
g0
(g21
g22
(g331
g372
tp1992
tp1993
Rp1994
sg379
g0
(g21
g22
(g331
g379
tp1995
tp1996
Rp1997
sg140
g0
(g21
g22
(g331
g140
tp1998
tp1999
Rp2000
sg389
g0
(g21
g22
(g331
g389
tp2001
tp2002
Rp2003
sg396
g0
(g21
g22
(g331
g396
tp2004
tp2005
Rp2006
sg683
g0
(g21
g22
(g331
g683
tp2007
tp2008
Rp2009
sg403
g0
(g21
g22
(g331
g403
tp2010
tp2011
Rp2012
sg410
g0
(g21
g22
(g331
g410
tp2013
tp2014
Rp2015
sg417
g0
(g21
g22
(g331
g417
tp2016
tp2017
Rp2018
sg424
g0
(g21
g22
(g331
g424
tp2019
tp2020
Rp2021
sg233
g0
(g21
g22
(g331
g233
tp2022
tp2023
Rp2024
sg438
g0
(g21
g22
(g331
g438
tp2025
tp2026
Rp2027
sg445
g0
(g21
g22
(g331
g445
tp2028
tp2029
Rp2030
sg452
g0
(g21
g22
(g331
g452
tp2031
tp2032
Rp2033
sg714
g0
(g21
g22
(g331
g714
tp2034
tp2035
Rp2036
sg459
g0
(g21
g22
(g331
g459
tp2037
tp2038
Rp2039
sg466
g0
(g21
g22
(g331
g466
tp2040
tp2041
Rp2042
sg473
g0
(g21
g22
(g331
g473
tp2043
tp2044
Rp2045
sg223
g0
(g21
g22
(g331
g223
tp2046
tp2047
Rp2048
sg483
g0
(g21
g22
(g331
g483
tp2049
tp2050
Rp2051
sg497
g0
(g21
g22
(g331
g497
tp2052
tp2053
Rp2054
sg504
g0
(g21
g22
(g331
g504
tp2055
tp2056
Rp2057
sg511
g0
(g21
g22
(g331
g511
tp2058
tp2059
Rp2060
sg155
g0
(g21
g22
(g331
g155
tp2061
tp2062
Rp2063
sg756
g0
(g21
g22
(g331
g756
tp2064
tp2065
Rp2066
sg518
g0
(g21
g22
(g331
g518
tp2067
tp2068
Rp2069
sg525
g0
(g21
g22
(g331
g525
tp2070
tp2071
Rp2072
sg539
g0
(g21
g22
(g331
g539
tp2073
tp2074
Rp2075
sg84
g0
(g21
g22
(g331
g84
tp2076
tp2077
Rp2078
sg352
g0
(g21
g22
(g331
g352
tp2079
tp2080
Rp2081
sg92
g0
(g21
g22
(g331
g92
tp2082
tp2083
Rp2084
sg18
g0
(g21
g22
(g331
g18
tp2085
tp2086
Rp2087
sg558
g0
(g21
g22
(g331
g558
tp2088
tp2089
Rp2090
sg532
g0
(g21
g22
(g331
g532
tp2091
tp2092
Rp2093
sg77
g0
(g21
g22
(g331
g77
tp2094
tp2095
Rp2096
ssg1474
(dp2097
g714
g0
(g21
g22
(g1474
g714
tp2098
tp2099
Rp2100
sg0
(g4
g5
Ntp2101
Rp2102
(dp2103
g9
S'/wiki/Lemmings_(video_game)'
p2104
sbg0
(g21
g22
(g1474
g2102
tp2105
tp2106
Rp2107
sg56
g0
(g21
g22
(g1474
g56
tp2108
tp2109
Rp2110
sg0
(g4
g5
Ntp2111
Rp2112
(dp2113
g9
S'/wiki/Lemmings_3D'
p2114
sbg0
(g21
g22
(g1474
g2112
tp2115
tp2116
Rp2117
sg18
g0
(g21
g22
(g1474
g18
tp2118
tp2119
Rp2120
sg44
g0
(g21
g22
(g1474
g44
tp2121
tp2122
Rp2123
sg0
(g4
g5
Ntp2124
Rp2125
(dp2126
g9
S'/wiki/Lemmings_2:_The_Tribes'
p2127
sbg0
(g21
g22
(g1474
g2125
tp2128
tp2129
Rp2130
sg0
(g4
g5
Ntp2131
Rp2132
(dp2133
g9
S'/wiki/All_New_World_of_Lemmings'
p2134
sbg0
(g21
g22
(g1474
g2132
tp2135
tp2136
Rp2137
ssg0
(g4
g5
Ntp2138
Rp2139
(dp2140
g9
S'/w/index.php?title=Links:_Fantasy_Course_-_Devils_Island&action=edit&redlink=1'
p2141
sb(dp2142
sg0
(g4
g5
Ntp2143
Rp2144
(dp2145
g9
S'/w/index.php?title=L.A._Crackdown&action=edit&redlink=1'
p2146
sb(dp2147
sg0
(g4
g5
Ntp2148
Rp2149
(dp2150
g9
S'/w/index.php?title=Logical_(video_game)&action=edit&redlink=1'
p2151
sb(dp2152
sg0
(g4
g5
Ntp2153
Rp2154
(dp2155
g9
S'/wiki/Little_Monk'
p2156
sb(dp2157
sg0
(g4
g5
Ntp2158
Rp2159
(dp2160
g9
S'/wiki/Lost_Dutchman_Mine_(computer_game)'
p2161
sb(dp2162
sg0
(g4
g5
Ntp2163
Rp2164
(dp2165
g9
S'/wiki/Laplace_no_Ma'
p2166
sb(dp2167
g1654
g0
(g21
g22
(g2164
g1654
tp2168
tp2169
Rp2170
sg56
g0
(g21
g22
(g2164
g56
tp2171
tp2172
Rp2173
ssg0
(g4
g5
Ntp2174
Rp2175
(dp2176
g9
S'/w/index.php?title=Links_Championship_Course:_Pelican_Hill&action=edit&redlink=1'
p2177
sb(dp2178
sg431
(dp2179
g1618
g0
(g21
g22
(g431
g1618
tp2180
tp2181
Rp2182
sg223
g0
(g21
g22
(g431
g223
tp2183
tp2184
Rp2185
ssg0
(g4
g5
Ntp2186
Rp2187
(dp2188
g9
S'/wiki/The_Legend_of_Sword_and_Fairy'
p2189
sb(dp2190
sg0
(g4
g5
Ntp2191
Rp2192
(dp2193
g9
S'/w/index.php?title=Red_Rat_Software&action=edit&redlink=1'
p2194
sb(dp2195
sg282
(dp2196
g275
g0
(g21
g22
(g282
g275
tp2197
tp2198
Rp2199
sg621
g0
(g21
g22
(g282
g621
tp2200
tp2201
Rp2202
sg77
g0
(g21
g22
(g282
g77
tp2203
tp2204
Rp2205
sg289
g0
(g21
g22
(g282
g289
tp2206
tp2207
Rp2208
sg296
g0
(g21
g22
(g282
g296
tp2209
tp2210
Rp2211
sg270
g0
(g21
g22
(g282
g270
tp2212
tp2213
Rp2214
sg303
g0
(g21
g22
(g282
g303
tp2215
tp2216
Rp2217
sg310
g0
(g21
g22
(g282
g310
tp2218
tp2219
Rp2220
sg317
g0
(g21
g22
(g282
g317
tp2221
tp2222
Rp2223
sg324
g0
(g21
g22
(g282
g324
tp2224
tp2225
Rp2226
sg331
g0
(g21
g22
(g282
g331
tp2227
tp2228
Rp2229
sg338
g0
(g21
g22
(g282
g338
tp2230
tp2231
Rp2232
sg345
g0
(g21
g22
(g282
g345
tp2233
tp2234
Rp2235
sg359
g0
(g21
g22
(g282
g359
tp2236
tp2237
Rp2238
sg167
g0
(g21
g22
(g282
g167
tp2239
tp2240
Rp2241
sg56
g0
(g21
g22
(g282
g56
tp2242
tp2243
Rp2244
sg372
g0
(g21
g22
(g282
g372
tp2245
tp2246
Rp2247
sg379
g0
(g21
g22
(g282
g379
tp2248
tp2249
Rp2250
sg140
g0
(g21
g22
(g282
g140
tp2251
tp2252
Rp2253
sg389
g0
(g21
g22
(g282
g389
tp2254
tp2255
Rp2256
sg396
g0
(g21
g22
(g282
g396
tp2257
tp2258
Rp2259
sg403
g0
(g21
g22
(g282
g403
tp2260
tp2261
Rp2262
sg410
g0
(g21
g22
(g282
g410
tp2263
tp2264
Rp2265
sg417
g0
(g21
g22
(g282
g417
tp2266
tp2267
Rp2268
sg1481
g0
(g21
g22
(g282
g1481
tp2269
tp2270
Rp2271
sg233
g0
(g21
g22
(g282
g233
tp2272
tp2273
Rp2274
sg438
g0
(g21
g22
(g282
g438
tp2275
tp2276
Rp2277
sg44
g0
(g21
g22
(g282
g44
tp2278
tp2279
Rp2280
sg459
g0
(g21
g22
(g282
g459
tp2281
tp2282
Rp2283
sg466
g0
(g21
g22
(g282
g466
tp2284
tp2285
Rp2286
sg473
g0
(g21
g22
(g282
g473
tp2287
tp2288
Rp2289
sg483
g0
(g21
g22
(g282
g483
tp2290
tp2291
Rp2292
sg504
g0
(g21
g22
(g282
g504
tp2293
tp2294
Rp2295
sg511
g0
(g21
g22
(g282
g511
tp2296
tp2297
Rp2298
sg518
g0
(g21
g22
(g282
g518
tp2299
tp2300
Rp2301
sg525
g0
(g21
g22
(g282
g525
tp2302
tp2303
Rp2304
sg769
g0
(g21
g22
(g282
g769
tp2305
tp2306
Rp2307
sg539
g0
(g21
g22
(g282
g539
tp2308
tp2309
Rp2310
sg84
g0
(g21
g22
(g282
g84
tp2311
tp2312
Rp2313
sg352
g0
(g21
g22
(g282
g352
tp2314
tp2315
Rp2316
sg92
g0
(g21
g22
(g282
g92
tp2317
tp2318
Rp2319
sg452
g0
(g21
g22
(g282
g452
tp2320
tp2321
Rp2322
sg532
g0
(g21
g22
(g282
g532
tp2323
tp2324
Rp2325
sg223
g0
(g21
g22
(g282
g223
tp2326
tp2327
Rp2328
ssg1263
(dp2329
g92
g0
(g21
g22
(g1263
g92
tp2330
tp2331
Rp2332
sg558
g0
(g21
g22
(g1263
g558
tp2333
tp2334
Rp2335
sg140
g0
(g21
g22
(g1263
g140
tp2336
tp2337
Rp2338
ssg289
(dp2339
g275
g0
(g21
g22
(g289
g275
tp2340
tp2341
Rp2342
sg282
g0
(g21
g22
(g289
g282
tp2343
tp2344
Rp2345
sg621
g0
(g21
g22
(g289
g621
tp2346
tp2347
Rp2348
sg410
g0
(g21
g22
(g289
g410
tp2349
tp2350
Rp2351
sg296
g0
(g21
g22
(g289
g296
tp2352
tp2353
Rp2354
sg270
g0
(g21
g22
(g289
g270
tp2355
tp2356
Rp2357
sg303
g0
(g21
g22
(g289
g303
tp2358
tp2359
Rp2360
sg317
g0
(g21
g22
(g289
g317
tp2361
tp2362
Rp2363
sg324
g0
(g21
g22
(g289
g324
tp2364
tp2365
Rp2366
sg331
g0
(g21
g22
(g289
g331
tp2367
tp2368
Rp2369
sg338
g0
(g21
g22
(g289
g338
tp2370
tp2371
Rp2372
sg345
g0
(g21
g22
(g289
g345
tp2373
tp2374
Rp2375
sg652
g0
(g21
g22
(g289
g652
tp2376
tp2377
Rp2378
sg352
g0
(g21
g22
(g289
g352
tp2379
tp2380
Rp2381
sg359
g0
(g21
g22
(g289
g359
tp2382
tp2383
Rp2384
sg0
(g4
g5
Ntp2385
Rp2386
(dp2387
g9
S'/wiki/Soup2Nuts'
p2388
sbg0
(g21
g22
(g289
g2386
tp2389
tp2390
Rp2391
sg56
g0
(g21
g22
(g289
g56
tp2392
tp2393
Rp2394
sg379
g0
(g21
g22
(g289
g379
tp2395
tp2396
Rp2397
sg140
g0
(g21
g22
(g289
g140
tp2398
tp2399
Rp2400
sg389
g0
(g21
g22
(g289
g389
tp2401
tp2402
Rp2403
sg396
g0
(g21
g22
(g289
g396
tp2404
tp2405
Rp2406
sg683
g0
(g21
g22
(g289
g683
tp2407
tp2408
Rp2409
sg403
g0
(g21
g22
(g289
g403
tp2410
tp2411
Rp2412
sg372
g0
(g21
g22
(g289
g372
tp2413
tp2414
Rp2415
sg417
g0
(g21
g22
(g289
g417
tp2416
tp2417
Rp2418
sg1474
g0
(g21
g22
(g289
g1474
tp2419
tp2420
Rp2421
sg233
g0
(g21
g22
(g289
g233
tp2422
tp2423
Rp2424
sg438
g0
(g21
g22
(g289
g438
tp2425
tp2426
Rp2427
sg1210
g0
(g21
g22
(g289
g1210
tp2428
tp2429
Rp2430
sg445
g0
(g21
g22
(g289
g445
tp2431
tp2432
Rp2433
sg459
g0
(g21
g22
(g289
g459
tp2434
tp2435
Rp2436
sg466
g0
(g21
g22
(g289
g466
tp2437
tp2438
Rp2439
sg473
g0
(g21
g22
(g289
g473
tp2440
tp2441
Rp2442
sg483
g0
(g21
g22
(g289
g483
tp2443
tp2444
Rp2445
sg490
g0
(g21
g22
(g289
g490
tp2446
tp2447
Rp2448
sg504
g0
(g21
g22
(g289
g504
tp2449
tp2450
Rp2451
sg511
g0
(g21
g22
(g289
g511
tp2452
tp2453
Rp2454
sg518
g0
(g21
g22
(g289
g518
tp2455
tp2456
Rp2457
sg769
g0
(g21
g22
(g289
g769
tp2458
tp2459
Rp2460
sg532
g0
(g21
g22
(g289
g532
tp2461
tp2462
Rp2463
sg539
g0
(g21
g22
(g289
g539
tp2464
tp2465
Rp2466
sg779
g0
(g21
g22
(g289
g779
tp2467
tp2468
Rp2469
sg121
g0
(g21
g22
(g289
g121
tp2470
tp2471
Rp2472
sg92
g0
(g21
g22
(g289
g92
tp2473
tp2474
Rp2475
sg452
g0
(g21
g22
(g289
g452
tp2476
tp2477
Rp2478
sg565
g0
(g21
g22
(g289
g565
tp2479
tp2480
Rp2481
ssg0
(g4
g5
Ntp2482
Rp2483
(dp2484
g9
S'/wiki/Leisure_Suit_Larry_3:_Passionate_Patti_in_Pursuit_of_the_Pulsating_Pectorals'
p2485
sb(dp2486
g114
g0
(g21
g22
(g2483
g114
tp2487
tp2488
Rp2489
sg56
g0
(g21
g22
(g2483
g56
tp2490
tp2491
Rp2492
sg121
g0
(g21
g22
(g2483
g121
tp2493
tp2494
Rp2495
sg107
g0
(g21
g22
(g2483
g107
tp2496
tp2497
Rp2498
sg128
g0
(g21
g22
(g2483
g128
tp2499
tp2500
Rp2501
sg99
g0
(g21
g22
(g2483
g99
tp2502
tp2503
Rp2504
ssg317
(dp2505
g275
g0
(g21
g22
(g317
g275
tp2506
tp2507
Rp2508
sg282
g0
(g21
g22
(g317
g282
tp2509
tp2510
Rp2511
sg621
g0
(g21
g22
(g317
g621
tp2512
tp2513
Rp2514
sg289
g0
(g21
g22
(g317
g289
tp2515
tp2516
Rp2517
sg296
g0
(g21
g22
(g317
g296
tp2518
tp2519
Rp2520
sg270
g0
(g21
g22
(g317
g270
tp2521
tp2522
Rp2523
sg303
g0
(g21
g22
(g317
g303
tp2524
tp2525
Rp2526
sg0
(g4
g5
Ntp2527
Rp2528
(dp2529
g9
S'/wiki/Sierra_On-line'
p2530
sbg0
(g21
g22
(g317
g2528
tp2531
tp2532
Rp2533
sg518
g0
(g21
g22
(g317
g518
tp2534
tp2535
Rp2536
sg324
g0
(g21
g22
(g317
g324
tp2537
tp2538
Rp2539
sg70
g0
(g21
g22
(g317
g70
tp2540
tp2541
Rp2542
sg331
g0
(g21
g22
(g317
g331
tp2543
tp2544
Rp2545
sg338
g0
(g21
g22
(g317
g338
tp2546
tp2547
Rp2548
sg345
g0
(g21
g22
(g317
g345
tp2549
tp2550
Rp2551
sg359
g0
(g21
g22
(g317
g359
tp2552
tp2553
Rp2554
sg812
g0
(g21
g22
(g317
g812
tp2555
tp2556
Rp2557
sg167
g0
(g21
g22
(g317
g167
tp2558
tp2559
Rp2560
sg56
g0
(g21
g22
(g317
g56
tp2561
tp2562
Rp2563
sg372
g0
(g21
g22
(g317
g372
tp2564
tp2565
Rp2566
sg379
g0
(g21
g22
(g317
g379
tp2567
tp2568
Rp2569
sg389
g0
(g21
g22
(g317
g389
tp2570
tp2571
Rp2572
sg396
g0
(g21
g22
(g317
g396
tp2573
tp2574
Rp2575
sg683
g0
(g21
g22
(g317
g683
tp2576
tp2577
Rp2578
sg403
g0
(g21
g22
(g317
g403
tp2579
tp2580
Rp2581
sg410
g0
(g21
g22
(g317
g410
tp2582
tp2583
Rp2584
sg417
g0
(g21
g22
(g317
g417
tp2585
tp2586
Rp2587
sg1474
g0
(g21
g22
(g317
g1474
tp2588
tp2589
Rp2590
sg424
g0
(g21
g22
(g317
g424
tp2591
tp2592
Rp2593
sg233
g0
(g21
g22
(g317
g233
tp2594
tp2595
Rp2596
sg438
g0
(g21
g22
(g317
g438
tp2597
tp2598
Rp2599
sg445
g0
(g21
g22
(g317
g445
tp2600
tp2601
Rp2602
sg714
g0
(g21
g22
(g317
g714
tp2603
tp2604
Rp2605
sg459
g0
(g21
g22
(g317
g459
tp2606
tp2607
Rp2608
sg466
g0
(g21
g22
(g317
g466
tp2609
tp2610
Rp2611
sg473
g0
(g21
g22
(g317
g473
tp2612
tp2613
Rp2614
sg483
g0
(g21
g22
(g317
g483
tp2615
tp2616
Rp2617
sg504
g0
(g21
g22
(g317
g504
tp2618
tp2619
Rp2620
sg511
g0
(g21
g22
(g317
g511
tp2621
tp2622
Rp2623
sg756
g0
(g21
g22
(g317
g756
tp2624
tp2625
Rp2626
sg140
g0
(g21
g22
(g317
g140
tp2627
tp2628
Rp2629
sg525
g0
(g21
g22
(g317
g525
tp2630
tp2631
Rp2632
sg1481
g0
(g21
g22
(g317
g1481
tp2633
tp2634
Rp2635
sg539
g0
(g21
g22
(g317
g539
tp2636
tp2637
Rp2638
sg352
g0
(g21
g22
(g317
g352
tp2639
tp2640
Rp2641
sg92
g0
(g21
g22
(g317
g92
tp2642
tp2643
Rp2644
sg18
g0
(g21
g22
(g317
g18
tp2645
tp2646
Rp2647
sg452
g0
(g21
g22
(g317
g452
tp2648
tp2649
Rp2650
sg532
g0
(g21
g22
(g317
g532
tp2651
tp2652
Rp2653
sg77
g0
(g21
g22
(g317
g77
tp2654
tp2655
Rp2656
ssg1222
(dp2657
g56
g0
(g21
g22
(g1222
g56
tp2658
tp2659
Rp2660
sg1210
g0
(g21
g22
(g1222
g1210
tp2661
tp2662
Rp2663
ssg0
(g4
g5
Ntp2664
Rp2665
(dp2666
g9
S'/wiki/Lords_of_Midnight'
p2667
sb(dp2668
sg0
(g4
g5
Ntp2669
Rp2670
(dp2671
g9
S'/wiki/Liero'
p2672
sb(dp2673
sg749
(dp2674
g92
g0
(g21
g22
(g749
g92
tp2675
tp2676
Rp2677
sg121
g0
(g21
g22
(g749
g121
tp2678
tp2679
Rp2680
sg140
g0
(g21
g22
(g749
g140
tp2681
tp2682
Rp2683
sg1111
g0
(g21
g22
(g749
g1111
tp2684
tp2685
Rp2686
ssg0
(g4
g5
Ntp2687
Rp2688
(dp2689
g9
S'/w/index.php?title=Ladder_Man&action=edit&redlink=1'
p2690
sb(dp2691
sg389
(dp2692
g275
g0
(g21
g22
(g389
g275
tp2693
tp2694
Rp2695
sg282
g0
(g21
g22
(g389
g282
tp2696
tp2697
Rp2698
sg289
g0
(g21
g22
(g389
g289
tp2699
tp2700
Rp2701
sg296
g0
(g21
g22
(g389
g296
tp2702
tp2703
Rp2704
sg270
g0
(g21
g22
(g389
g270
tp2705
tp2706
Rp2707
sg303
g0
(g21
g22
(g389
g303
tp2708
tp2709
Rp2710
sg317
g0
(g21
g22
(g389
g317
tp2711
tp2712
Rp2713
sg324
g0
(g21
g22
(g389
g324
tp2714
tp2715
Rp2716
sg70
g0
(g21
g22
(g389
g70
tp2717
tp2718
Rp2719
sg331
g0
(g21
g22
(g389
g331
tp2720
tp2721
Rp2722
sg338
g0
(g21
g22
(g389
g338
tp2723
tp2724
Rp2725
sg345
g0
(g21
g22
(g389
g345
tp2726
tp2727
Rp2728
sg359
g0
(g21
g22
(g389
g359
tp2729
tp2730
Rp2731
sg56
g0
(g21
g22
(g389
g56
tp2732
tp2733
Rp2734
sg379
g0
(g21
g22
(g389
g379
tp2735
tp2736
Rp2737
sg140
g0
(g21
g22
(g389
g140
tp2738
tp2739
Rp2740
sg396
g0
(g21
g22
(g389
g396
tp2741
tp2742
Rp2743
sg403
g0
(g21
g22
(g389
g403
tp2744
tp2745
Rp2746
sg410
g0
(g21
g22
(g389
g410
tp2747
tp2748
Rp2749
sg417
g0
(g21
g22
(g389
g417
tp2750
tp2751
Rp2752
sg438
g0
(g21
g22
(g389
g438
tp2753
tp2754
Rp2755
sg459
g0
(g21
g22
(g389
g459
tp2756
tp2757
Rp2758
sg466
g0
(g21
g22
(g389
g466
tp2759
tp2760
Rp2761
sg473
g0
(g21
g22
(g389
g473
tp2762
tp2763
Rp2764
sg483
g0
(g21
g22
(g389
g483
tp2765
tp2766
Rp2767
sg504
g0
(g21
g22
(g389
g504
tp2768
tp2769
Rp2770
sg511
g0
(g21
g22
(g389
g511
tp2771
tp2772
Rp2773
sg518
g0
(g21
g22
(g389
g518
tp2774
tp2775
Rp2776
sg539
g0
(g21
g22
(g389
g539
tp2777
tp2778
Rp2779
sg352
g0
(g21
g22
(g389
g352
tp2780
tp2781
Rp2782
sg452
g0
(g21
g22
(g389
g452
tp2783
tp2784
Rp2785
sg532
g0
(g21
g22
(g389
g532
tp2786
tp2787
Rp2788
ssg0
(g4
g5
Ntp2789
Rp2790
(dp2791
g9
S'/wiki/The_Legacy:_Realm_of_Terror'
p2792
sb(dp2793
g56
g0
(g21
g22
(g2790
g56
tp2794
tp2795
Rp2796
sg769
g0
(g21
g22
(g2790
g769
tp2797
tp2798
Rp2799
sg1004
g0
(g21
g22
(g2790
g1004
tp2800
tp2801
Rp2802
ssg586
(dp2803
g56
g0
(g21
g22
(g586
g56
tp2804
tp2805
Rp2806
sg233
g0
(g21
g22
(g586
g233
tp2807
tp2808
Rp2809
sg575
g0
(g21
g22
(g586
g575
tp2810
tp2811
Rp2812
ssg0
(g4
g5
Ntp2813
Rp2814
(dp2815
g9
S'/wiki/The_Lawnmower_Man_(video_game)'
p2816
sb(dp2817
g56
g0
(g21
g22
(g2814
g56
tp2818
tp2819
Rp2820
sg84
g0
(g21
g22
(g2814
g84
tp2821
tp2822
Rp2823
sg1282
g0
(g21
g22
(g2814
g1282
tp2824
tp2825
Rp2826
sg565
g0
(g21
g22
(g2814
g565
tp2827
tp2828
Rp2829
ssg0
(g4
g5
Ntp2830
Rp2831
(dp2832
g9
S'/w/index.php?title=Joosa_Riekkinen&action=edit&redlink=1'
p2833
sb(dp2834
sg0
(g4
g5
Ntp2835
Rp2836
(dp2837
g9
S'/w/index.php?title=Legend_of_the_Sword&action=edit&redlink=1'
p2838
sb(dp2839
sg379
(dp2840
g275
g0
(g21
g22
(g379
g275
tp2841
tp2842
Rp2843
sg282
g0
(g21
g22
(g379
g282
tp2844
tp2845
Rp2846
sg621
g0
(g21
g22
(g379
g621
tp2847
tp2848
Rp2849
sg289
g0
(g21
g22
(g379
g289
tp2850
tp2851
Rp2852
sg296
g0
(g21
g22
(g379
g296
tp2853
tp2854
Rp2855
sg270
g0
(g21
g22
(g379
g270
tp2856
tp2857
Rp2858
sg303
g0
(g21
g22
(g379
g303
tp2859
tp2860
Rp2861
sg317
g0
(g21
g22
(g379
g317
tp2862
tp2863
Rp2864
sg324
g0
(g21
g22
(g379
g324
tp2865
tp2866
Rp2867
sg331
g0
(g21
g22
(g379
g331
tp2868
tp2869
Rp2870
sg338
g0
(g21
g22
(g379
g338
tp2871
tp2872
Rp2873
sg345
g0
(g21
g22
(g379
g345
tp2874
tp2875
Rp2876
sg652
g0
(g21
g22
(g379
g652
tp2877
tp2878
Rp2879
sg359
g0
(g21
g22
(g379
g359
tp2880
tp2881
Rp2882
sg56
g0
(g21
g22
(g379
g56
tp2883
tp2884
Rp2885
sg372
g0
(g21
g22
(g379
g372
tp2886
tp2887
Rp2888
sg140
g0
(g21
g22
(g379
g140
tp2889
tp2890
Rp2891
sg389
g0
(g21
g22
(g379
g389
tp2892
tp2893
Rp2894
sg396
g0
(g21
g22
(g379
g396
tp2895
tp2896
Rp2897
sg403
g0
(g21
g22
(g379
g403
tp2898
tp2899
Rp2900
sg410
g0
(g21
g22
(g379
g410
tp2901
tp2902
Rp2903
sg417
g0
(g21
g22
(g379
g417
tp2904
tp2905
Rp2906
sg1481
g0
(g21
g22
(g379
g1481
tp2907
tp2908
Rp2909
sg438
g0
(g21
g22
(g379
g438
tp2910
tp2911
Rp2912
sg44
g0
(g21
g22
(g379
g44
tp2913
tp2914
Rp2915
sg459
g0
(g21
g22
(g379
g459
tp2916
tp2917
Rp2918
sg466
g0
(g21
g22
(g379
g466
tp2919
tp2920
Rp2921
sg473
g0
(g21
g22
(g379
g473
tp2922
tp2923
Rp2924
sg483
g0
(g21
g22
(g379
g483
tp2925
tp2926
Rp2927
sg504
g0
(g21
g22
(g379
g504
tp2928
tp2929
Rp2930
sg511
g0
(g21
g22
(g379
g511
tp2931
tp2932
Rp2933
sg742
g0
(g21
g22
(g379
g742
tp2934
tp2935
Rp2936
sg518
g0
(g21
g22
(g379
g518
tp2937
tp2938
Rp2939
sg539
g0
(g21
g22
(g379
g539
tp2940
tp2941
Rp2942
sg352
g0
(g21
g22
(g379
g352
tp2943
tp2944
Rp2945
sg452
g0
(g21
g22
(g379
g452
tp2946
tp2947
Rp2948
sg532
g0
(g21
g22
(g379
g532
tp2949
tp2950
Rp2951
ssg2125
(dp2952
g714
g0
(g21
g22
(g2125
g714
tp2953
tp2954
Rp2955
sg2132
g0
(g21
g22
(g2125
g2132
tp2956
tp2957
Rp2958
sg1474
g0
(g21
g22
(g2125
g1474
tp2959
tp2960
Rp2961
sg2102
g0
(g21
g22
(g2125
g2102
tp2962
tp2963
Rp2964
ssg396
(dp2965
g827
g0
(g21
g22
(g396
g827
tp2966
tp2967
Rp2968
sg275
g0
(g21
g22
(g396
g275
tp2969
tp2970
Rp2971
sg352
g0
(g21
g22
(g396
g352
tp2972
tp2973
Rp2974
sg282
g0
(g21
g22
(g396
g282
tp2975
tp2976
Rp2977
sg621
g0
(g21
g22
(g396
g621
tp2978
tp2979
Rp2980
sg77
g0
(g21
g22
(g396
g77
tp2981
tp2982
Rp2983
sg289
g0
(g21
g22
(g396
g289
tp2984
tp2985
Rp2986
sg296
g0
(g21
g22
(g396
g296
tp2987
tp2988
Rp2989
sg270
g0
(g21
g22
(g396
g270
tp2990
tp2991
Rp2992
sg303
g0
(g21
g22
(g396
g303
tp2993
tp2994
Rp2995
sg310
g0
(g21
g22
(g396
g310
tp2996
tp2997
Rp2998
sg317
g0
(g21
g22
(g396
g317
tp2999
tp3000
Rp3001
sg324
g0
(g21
g22
(g396
g324
tp3002
tp3003
Rp3004
sg331
g0
(g21
g22
(g396
g331
tp3005
tp3006
Rp3007
sg338
g0
(g21
g22
(g396
g338
tp3008
tp3009
Rp3010
sg345
g0
(g21
g22
(g396
g345
tp3011
tp3012
Rp3013
sg1807
g0
(g21
g22
(g396
g1807
tp3014
tp3015
Rp3016
sg359
g0
(g21
g22
(g396
g359
tp3017
tp3018
Rp3019
sg812
g0
(g21
g22
(g396
g812
tp3020
tp3021
Rp3022
sg167
g0
(g21
g22
(g396
g167
tp3023
tp3024
Rp3025
sg56
g0
(g21
g22
(g396
g56
tp3026
tp3027
Rp3028
sg379
g0
(g21
g22
(g396
g379
tp3029
tp3030
Rp3031
sg140
g0
(g21
g22
(g396
g140
tp3032
tp3033
Rp3034
sg389
g0
(g21
g22
(g396
g389
tp3035
tp3036
Rp3037
sg251
g0
(g21
g22
(g396
g251
tp3038
tp3039
Rp3040
sg403
g0
(g21
g22
(g396
g403
tp3041
tp3042
Rp3043
sg410
g0
(g21
g22
(g396
g410
tp3044
tp3045
Rp3046
sg417
g0
(g21
g22
(g396
g417
tp3047
tp3048
Rp3049
sg233
g0
(g21
g22
(g396
g233
tp3050
tp3051
Rp3052
sg438
g0
(g21
g22
(g396
g438
tp3053
tp3054
Rp3055
sg445
g0
(g21
g22
(g396
g445
tp3056
tp3057
Rp3058
sg452
g0
(g21
g22
(g396
g452
tp3059
tp3060
Rp3061
sg714
g0
(g21
g22
(g396
g714
tp3062
tp3063
Rp3064
sg459
g0
(g21
g22
(g396
g459
tp3065
tp3066
Rp3067
sg466
g0
(g21
g22
(g396
g466
tp3068
tp3069
Rp3070
sg473
g0
(g21
g22
(g396
g473
tp3071
tp3072
Rp3073
sg483
g0
(g21
g22
(g396
g483
tp3074
tp3075
Rp3076
sg490
g0
(g21
g22
(g396
g490
tp3077
tp3078
Rp3079
sg558
g0
(g21
g22
(g396
g558
tp3080
tp3081
Rp3082
sg504
g0
(g21
g22
(g396
g504
tp3083
tp3084
Rp3085
sg511
g0
(g21
g22
(g396
g511
tp3086
tp3087
Rp3088
sg749
g0
(g21
g22
(g396
g749
tp3089
tp3090
Rp3091
sg518
g0
(g21
g22
(g396
g518
tp3092
tp3093
Rp3094
sg1318
g0
(g21
g22
(g396
g1318
tp3095
tp3096
Rp3097
sg525
g0
(g21
g22
(g396
g525
tp3098
tp3099
Rp3100
sg539
g0
(g21
g22
(g396
g539
tp3101
tp3102
Rp3103
sg84
g0
(g21
g22
(g396
g84
tp3104
tp3105
Rp3106
sg121
g0
(g21
g22
(g396
g121
tp3107
tp3108
Rp3109
sg92
g0
(g21
g22
(g396
g92
tp3110
tp3111
Rp3112
sg18
g0
(g21
g22
(g396
g18
tp3113
tp3114
Rp3115
sg497
g0
(g21
g22
(g396
g497
tp3116
tp3117
Rp3118
sg532
g0
(g21
g22
(g396
g532
tp3119
tp3120
Rp3121
sg1282
g0
(g21
g22
(g396
g1282
tp3122
tp3123
Rp3124
ssg0
(g4
g5
Ntp3125
Rp3126
(dp3127
g9
S'/wiki/Robinson_Technologies'
p3128
sb(dp3129
g0
(g4
g5
Ntp3130
Rp3131
(dp3132
g9
S'/wiki/Legend_of_the_Red_Dragon'
p3133
sbg0
(g21
g22
(g3126
g3131
tp3134
tp3135
Rp3136
ssg107
(dp3137
g114
g0
(g21
g22
(g107
g114
tp3138
tp3139
Rp3140
sg56
g0
(g21
g22
(g107
g56
tp3141
tp3142
Rp3143
sg2483
g0
(g21
g22
(g107
g2483
tp3144
tp3145
Rp3146
sg2528
g0
(g21
g22
(g107
g2528
tp3147
tp3148
Rp3149
sg128
g0
(g21
g22
(g107
g128
tp3150
tp3151
Rp3152
sg99
g0
(g21
g22
(g107
g99
tp3153
tp3154
Rp3155
ssg1249
(dp3156
g56
g0
(g21
g22
(g1249
g56
tp3157
tp3158
Rp3159
sg70
g0
(g21
g22
(g1249
g70
tp3160
tp3161
Rp3162
ssg0
(g4
g5
Ntp3163
Rp3164
(dp3165
g9
S'/wiki/Legend_of_Faerghail'
p3166
sb(dp3167
g56
g0
(g21
g22
(g3164
g56
tp3168
tp3169
Rp3170
sg0
(g4
g5
Ntp3171
Rp3172
(dp3173
g9
S'/wiki/ReLINE_Software'
p3174
sbg0
(g21
g22
(g3164
g3172
tp3175
tp3176
Rp3177
ssg1079
(dp3178
g1974
g0
(g21
g22
(g1079
g1974
tp3179
tp3180
Rp3181
sg56
g0
(g21
g22
(g1079
g56
tp3182
tp3183
Rp3184
sg70
g0
(g21
g22
(g1079
g70
tp3185
tp3186
Rp3187
sg77
g0
(g21
g22
(g1079
g77
tp3188
tp3189
Rp3190
ssg155
(dp3191
g150
g0
(g21
g22
(g155
g150
tp3192
tp3193
Rp3194
ssg1027
(dp3195
g0
(g4
g5
Ntp3196
Rp3197
(dp3198
g9
S'/wiki/Smoking_Car_Productions'
p3199
sbg0
(g21
g22
(g1027
g3197
tp3200
tp3201
Rp3202
sg84
g0
(g21
g22
(g1027
g84
tp3203
tp3204
Rp3205
sg56
g0
(g21
g22
(g1027
g56
tp3206
tp3207
Rp3208
sg558
g0
(g21
g22
(g1027
g558
tp3209
tp3210
Rp3211
ssg0
(g4
g5
Ntp3212
Rp3213
(dp3214
g9
S'/w/index.php?title=Levels_%26_Add-Ons_f%C3%BCr_Warcraft_II&action=edit&redlink=1'
p3215
sb(dp3216
sg459
(dp3217
g275
g0
(g21
g22
(g459
g275
tp3218
tp3219
Rp3220
sg282
g0
(g21
g22
(g459
g282
tp3221
tp3222
Rp3223
sg289
g0
(g21
g22
(g459
g289
tp3224
tp3225
Rp3226
sg296
g0
(g21
g22
(g459
g296
tp3227
tp3228
Rp3229
sg270
g0
(g21
g22
(g459
g270
tp3230
tp3231
Rp3232
sg303
g0
(g21
g22
(g459
g303
tp3233
tp3234
Rp3235
sg317
g0
(g21
g22
(g459
g317
tp3236
tp3237
Rp3238
sg324
g0
(g21
g22
(g459
g324
tp3239
tp3240
Rp3241
sg331
g0
(g21
g22
(g459
g331
tp3242
tp3243
Rp3244
sg338
g0
(g21
g22
(g459
g338
tp3245
tp3246
Rp3247
sg345
g0
(g21
g22
(g459
g345
tp3248
tp3249
Rp3250
sg359
g0
(g21
g22
(g459
g359
tp3251
tp3252
Rp3253
sg167
g0
(g21
g22
(g459
g167
tp3254
tp3255
Rp3256
sg56
g0
(g21
g22
(g459
g56
tp3257
tp3258
Rp3259
sg372
g0
(g21
g22
(g459
g372
tp3260
tp3261
Rp3262
sg379
g0
(g21
g22
(g459
g379
tp3263
tp3264
Rp3265
sg389
g0
(g21
g22
(g459
g389
tp3266
tp3267
Rp3268
sg396
g0
(g21
g22
(g459
g396
tp3269
tp3270
Rp3271
sg403
g0
(g21
g22
(g459
g403
tp3272
tp3273
Rp3274
sg410
g0
(g21
g22
(g459
g410
tp3275
tp3276
Rp3277
sg417
g0
(g21
g22
(g459
g417
tp3278
tp3279
Rp3280
sg438
g0
(g21
g22
(g459
g438
tp3281
tp3282
Rp3283
sg466
g0
(g21
g22
(g459
g466
tp3284
tp3285
Rp3286
sg473
g0
(g21
g22
(g459
g473
tp3287
tp3288
Rp3289
sg483
g0
(g21
g22
(g459
g483
tp3290
tp3291
Rp3292
sg504
g0
(g21
g22
(g459
g504
tp3293
tp3294
Rp3295
sg511
g0
(g21
g22
(g459
g511
tp3296
tp3297
Rp3298
sg518
g0
(g21
g22
(g459
g518
tp3299
tp3300
Rp3301
sg539
g0
(g21
g22
(g459
g539
tp3302
tp3303
Rp3304
sg84
g0
(g21
g22
(g459
g84
tp3305
tp3306
Rp3307
sg352
g0
(g21
g22
(g459
g352
tp3308
tp3309
Rp3310
sg452
g0
(g21
g22
(g459
g452
tp3311
tp3312
Rp3313
sg532
g0
(g21
g22
(g459
g532
tp3314
tp3315
Rp3316
sg77
g0
(g21
g22
(g459
g77
tp3317
tp3318
Rp3319
ssg899
(dp3320
g56
g0
(g21
g22
(g899
g56
tp3321
tp3322
Rp3323
sg233
g0
(g21
g22
(g899
g233
tp3324
tp3325
Rp3326
ssg0
(g4
g5
Ntp3327
Rp3328
(dp3329
g9
S'/w/index.php?title=Learn_to_Add&action=edit&redlink=1'
p3330
sb(dp3331
sg0
(g4
g5
Ntp3332
Rp3333
(dp3334
g9
S'/w/index.php?title=Legend_of_Djel&action=edit&redlink=1'
p3335
sb(dp3336
sg0
(g4
g5
Ntp3337
Rp3338
(dp3339
g9
S'/w/index.php?title=Alpha_Helix_(company)&action=edit&redlink=1'
p3340
sb(dp3341
sg0
(g4
g5
Ntp3342
Rp3343
(dp3344
g9
S'/w/index.php?title=Links:_Championship_Course_-_Bay_Hill_Club_%26_Lodge&action=edit&redlink=1'
p3345
sb(dp3346
sg0
(g4
g5
Ntp3347
Rp3348
(dp3349
g9
S'/w/index.php?title=Links:_Championship_Course_-_Pinehurst_Country_Club&action=edit&redlink=1'
p3350
sb(dp3351
sg0
(g4
g5
Ntp3352
Rp3353
(dp3354
g9
S'/wiki/Noah_Morgan'
p3355
sb(dp3356
sg0
(g4
g5
Ntp3357
Rp3358
(dp3359
g9
S'/wiki/Legend_(1992_video_game)'
p3360
sb(dp3361
g56
g0
(g21
g22
(g3358
g56
tp3362
tp3363
Rp3364
sg372
g0
(g21
g22
(g3358
g372
tp3365
tp3366
Rp3367
ssg0
(g4
g5
Ntp3368
Rp3369
(dp3370
g9
S'/w/index.php?title=La_Aventura_Espacial&action=edit&redlink=1'
p3371
sb(dp3372
sg0
(g4
g5
Ntp3373
Rp3374
(dp3375
g9
S'/w/index.php?title=L%27affaire_Morlove&action=edit&redlink=1'
p3376
sb(dp3377
sg0
(g4
g5
Ntp3378
Rp3379
(dp3380
g9
S'/w/index.php?title=Leyendas_de_Lhodrye:_Arakhas_el_Oscuro&action=edit&redlink=1'
p3381
sb(dp3382
sg2102
(dp3383
g621
g0
(g21
g22
(g2102
g621
tp3384
tp3385
Rp3386
sg714
g0
(g21
g22
(g2102
g714
tp3387
tp3388
Rp3389
sg2125
g0
(g21
g22
(g2102
g2125
tp3390
tp3391
Rp3392
sg2132
g0
(g21
g22
(g2102
g2132
tp3393
tp3394
Rp3395
sg56
g0
(g21
g22
(g2102
g56
tp3396
tp3397
Rp3398
sg445
g0
(g21
g22
(g2102
g445
tp3399
tp3400
Rp3401
ssg1481
(dp3402
g749
g0
(g21
g22
(g1481
g749
tp3403
tp3404
Rp3405
sg652
g0
(g21
g22
(g1481
g652
tp3406
tp3407
Rp3408
sg140
g0
(g21
g22
(g1481
g140
tp3409
tp3410
Rp3411
sg3358
g0
(g21
g22
(g1481
g3358
tp3412
tp3413
Rp3414
ssg0
(g4
g5
Ntp3415
Rp3416
(dp3417
g9
S'/w/index.php?title=Lock_on_(video_game)&action=edit&redlink=1'
p3418
sb(dp3419
sg2132
(dp3420
g714
g0
(g21
g22
(g2132
g714
tp3421
tp3422
Rp3423
sg1474
g0
(g21
g22
(g2132
g1474
tp3424
tp3425
Rp3426
sg2125
g0
(g21
g22
(g2132
g2125
tp3427
tp3428
Rp3429
sg2102
g0
(g21
g22
(g2132
g2102
tp3430
tp3431
Rp3432
ssg3131
(dp3433
g56
g0
(g21
g22
(g3131
g56
tp3434
tp3435
Rp3436
sg3126
g0
(g21
g22
(g3131
g3126
tp3437
tp3438
Rp3439
ssg953
(dp3440
g1282
g0
(g21
g22
(g953
g1282
tp3441
tp3442
Rp3443
sg1618
g0
(g21
g22
(g953
g1618
tp3444
tp3445
Rp3446
sg121
g0
(g21
g22
(g953
g121
tp3447
tp3448
Rp3449
sg960
g0
(g21
g22
(g953
g960
tp3450
tp3451
Rp3452
sg263
g0
(g21
g22
(g953
g263
tp3453
tp3454
Rp3455
ssg0
(g4
g5
Ntp3456
Rp3457
(dp3458
g9
S'/w/index.php?title=Links:_Championship_Course_-_Riviera&action=edit&redlink=1'
p3459
sb(dp3460
sg275
(dp3461
g282
g0
(g21
g22
(g275
g282
tp3462
tp3463
Rp3464
sg77
g0
(g21
g22
(g275
g77
tp3465
tp3466
Rp3467
sg289
g0
(g21
g22
(g275
g289
tp3468
tp3469
Rp3470
sg296
g0
(g21
g22
(g275
g296
tp3471
tp3472
Rp3473
sg270
g0
(g21
g22
(g275
g270
tp3474
tp3475
Rp3476
sg303
g0
(g21
g22
(g275
g303
tp3477
tp3478
Rp3479
sg317
g0
(g21
g22
(g275
g317
tp3480
tp3481
Rp3482
sg324
g0
(g21
g22
(g275
g324
tp3483
tp3484
Rp3485
sg70
g0
(g21
g22
(g275
g70
tp3486
tp3487
Rp3488
sg331
g0
(g21
g22
(g275
g331
tp3489
tp3490
Rp3491
sg338
g0
(g21
g22
(g275
g338
tp3492
tp3493
Rp3494
sg345
g0
(g21
g22
(g275
g345
tp3495
tp3496
Rp3497
sg352
g0
(g21
g22
(g275
g352
tp3498
tp3499
Rp3500
sg359
g0
(g21
g22
(g275
g359
tp3501
tp3502
Rp3503
sg167
g0
(g21
g22
(g275
g167
tp3504
tp3505
Rp3506
sg56
g0
(g21
g22
(g275
g56
tp3507
tp3508
Rp3509
sg372
g0
(g21
g22
(g275
g372
tp3510
tp3511
Rp3512
sg379
g0
(g21
g22
(g275
g379
tp3513
tp3514
Rp3515
sg140
g0
(g21
g22
(g275
g140
tp3516
tp3517
Rp3518
sg389
g0
(g21
g22
(g275
g389
tp3519
tp3520
Rp3521
sg396
g0
(g21
g22
(g275
g396
tp3522
tp3523
Rp3524
sg403
g0
(g21
g22
(g275
g403
tp3525
tp3526
Rp3527
sg410
g0
(g21
g22
(g275
g410
tp3528
tp3529
Rp3530
sg417
g0
(g21
g22
(g275
g417
tp3531
tp3532
Rp3533
sg1474
g0
(g21
g22
(g275
g1474
tp3534
tp3535
Rp3536
sg1481
g0
(g21
g22
(g275
g1481
tp3537
tp3538
Rp3539
sg233
g0
(g21
g22
(g275
g233
tp3540
tp3541
Rp3542
sg438
g0
(g21
g22
(g275
g438
tp3543
tp3544
Rp3545
sg1210
g0
(g21
g22
(g275
g1210
tp3546
tp3547
Rp3548
sg742
g0
(g21
g22
(g275
g742
tp3549
tp3550
Rp3551
sg714
g0
(g21
g22
(g275
g714
tp3552
tp3553
Rp3554
sg459
g0
(g21
g22
(g275
g459
tp3555
tp3556
Rp3557
sg466
g0
(g21
g22
(g275
g466
tp3558
tp3559
Rp3560
sg473
g0
(g21
g22
(g275
g473
tp3561
tp3562
Rp3563
sg223
g0
(g21
g22
(g275
g223
tp3564
tp3565
Rp3566
sg483
g0
(g21
g22
(g275
g483
tp3567
tp3568
Rp3569
sg452
g0
(g21
g22
(g275
g452
tp3570
tp3571
Rp3572
sg504
g0
(g21
g22
(g275
g504
tp3573
tp3574
Rp3575
sg511
g0
(g21
g22
(g275
g511
tp3576
tp3577
Rp3578
sg155
g0
(g21
g22
(g275
g155
tp3579
tp3580
Rp3581
sg749
g0
(g21
g22
(g275
g749
tp3582
tp3583
Rp3584
sg518
g0
(g21
g22
(g275
g518
tp3585
tp3586
Rp3587
sg525
g0
(g21
g22
(g275
g525
tp3588
tp3589
Rp3590
sg769
g0
(g21
g22
(g275
g769
tp3591
tp3592
Rp3593
sg424
g0
(g21
g22
(g275
g424
tp3594
tp3595
Rp3596
sg539
g0
(g21
g22
(g275
g539
tp3597
tp3598
Rp3599
sg84
g0
(g21
g22
(g275
g84
tp3600
tp3601
Rp3602
sg121
g0
(g21
g22
(g275
g121
tp3603
tp3604
Rp3605
sg92
g0
(g21
g22
(g275
g92
tp3606
tp3607
Rp3608
sg558
g0
(g21
g22
(g275
g558
tp3609
tp3610
Rp3611
sg532
g0
(g21
g22
(g275
g532
tp3612
tp3613
Rp3614
sg1004
g0
(g21
g22
(g275
g1004
tp3615
tp3616
Rp3617
ssg0
(g4
g5
Ntp3618
Rp3619
(dp3620
g9
S'/w/index.php?title=Lane_Mastodon_vs._the_Blubbermen&action=edit&redlink=1'
p3621
sb(dp3622
sg0
(g4
g5
Ntp3623
Rp3624
(dp3625
g9
S'/w/index.php?title=Links:_Championship_Course_-_Bighorn&action=edit&redlink=1'
p3626
sb(dp3627
sg1034
(dp3628
sg0
(g4
g5
Ntp3629
Rp3630
(dp3631
g9
S'/w/index.php?title=Lunar_Explorer:_A_Space_Flight_Simulator&action=edit&redlink=1'
p3632
sb(dp3633
sg0
(g4
g5
Ntp3634
Rp3635
(dp3636
g9
S'/wiki/Linus_Spacehead%27s_Cosmic_Crusade'
p3637
sb(dp3638
g56
g0
(g21
g22
(g3635
g56
tp3639
tp3640
Rp3641
sg223
g0
(g21
g22
(g3635
g223
tp3642
tp3643
Rp3644
ssg1282
(dp3645
sg0
(g4
g5
Ntp3646
Rp3647
(dp3648
g9
S'/w/index.php?title=Legends_of_Murder_II:_Grey_Haven&action=edit&redlink=1'
p3649
sb(dp3650
sg251
(dp3651
g56
g0
(g21
g22
(g251
g56
tp3652
tp3653
Rp3654
sg243
g0
(g21
g22
(g251
g243
tp3655
tp3656
Rp3657
ssg0
(g4
g5
Ntp3658
Rp3659
(dp3660
g9
S'/wiki/Legacy_of_the_Ancients'
p3661
sb(dp3662
g140
g0
(g21
g22
(g3659
g140
tp3663
tp3664
Rp3665
ssg296
(dp3666
g275
g0
(g21
g22
(g296
g275
tp3667
tp3668
Rp3669
sg282
g0
(g21
g22
(g296
g282
tp3670
tp3671
Rp3672
sg289
g0
(g21
g22
(g296
g289
tp3673
tp3674
Rp3675
sg270
g0
(g21
g22
(g296
g270
tp3676
tp3677
Rp3678
sg303
g0
(g21
g22
(g296
g303
tp3679
tp3680
Rp3681
sg317
g0
(g21
g22
(g296
g317
tp3682
tp3683
Rp3684
sg324
g0
(g21
g22
(g296
g324
tp3685
tp3686
Rp3687
sg504
g0
(g21
g22
(g296
g504
tp3688
tp3689
Rp3690
sg338
g0
(g21
g22
(g296
g338
tp3691
tp3692
Rp3693
sg345
g0
(g21
g22
(g296
g345
tp3694
tp3695
Rp3696
sg359
g0
(g21
g22
(g296
g359
tp3697
tp3698
Rp3699
sg56
g0
(g21
g22
(g296
g56
tp3700
tp3701
Rp3702
sg379
g0
(g21
g22
(g296
g379
tp3703
tp3704
Rp3705
sg389
g0
(g21
g22
(g296
g389
tp3706
tp3707
Rp3708
sg396
g0
(g21
g22
(g296
g396
tp3709
tp3710
Rp3711
sg403
g0
(g21
g22
(g296
g403
tp3712
tp3713
Rp3714
sg410
g0
(g21
g22
(g296
g410
tp3715
tp3716
Rp3717
sg417
g0
(g21
g22
(g296
g417
tp3718
tp3719
Rp3720
sg438
g0
(g21
g22
(g296
g438
tp3721
tp3722
Rp3723
sg459
g0
(g21
g22
(g296
g459
tp3724
tp3725
Rp3726
sg466
g0
(g21
g22
(g296
g466
tp3727
tp3728
Rp3729
sg473
g0
(g21
g22
(g296
g473
tp3730
tp3731
Rp3732
sg483
g0
(g21
g22
(g296
g483
tp3733
tp3734
Rp3735
sg331
g0
(g21
g22
(g296
g331
tp3736
tp3737
Rp3738
sg511
g0
(g21
g22
(g296
g511
tp3739
tp3740
Rp3741
sg518
g0
(g21
g22
(g296
g518
tp3742
tp3743
Rp3744
sg539
g0
(g21
g22
(g296
g539
tp3745
tp3746
Rp3747
sg352
g0
(g21
g22
(g296
g352
tp3748
tp3749
Rp3750
sg452
g0
(g21
g22
(g296
g452
tp3751
tp3752
Rp3753
sg532
g0
(g21
g22
(g296
g532
tp3754
tp3755
Rp3756
ssg338
(dp3757
g275
g0
(g21
g22
(g338
g275
tp3758
tp3759
Rp3760
sg282
g0
(g21
g22
(g338
g282
tp3761
tp3762
Rp3763
sg621
g0
(g21
g22
(g338
g621
tp3764
tp3765
Rp3766
sg289
g0
(g21
g22
(g338
g289
tp3767
tp3768
Rp3769
sg270
g0
(g21
g22
(g338
g270
tp3770
tp3771
Rp3772
sg303
g0
(g21
g22
(g338
g303
tp3773
tp3774
Rp3775
sg317
g0
(g21
g22
(g338
g317
tp3776
tp3777
Rp3778
sg324
g0
(g21
g22
(g338
g324
tp3779
tp3780
Rp3781
sg331
g0
(g21
g22
(g338
g331
tp3782
tp3783
Rp3784
sg296
g0
(g21
g22
(g338
g296
tp3785
tp3786
Rp3787
sg345
g0
(g21
g22
(g338
g345
tp3788
tp3789
Rp3790
sg352
g0
(g21
g22
(g338
g352
tp3791
tp3792
Rp3793
sg359
g0
(g21
g22
(g338
g359
tp3794
tp3795
Rp3796
sg56
g0
(g21
g22
(g338
g56
tp3797
tp3798
Rp3799
sg372
g0
(g21
g22
(g338
g372
tp3800
tp3801
Rp3802
sg379
g0
(g21
g22
(g338
g379
tp3803
tp3804
Rp3805
sg140
g0
(g21
g22
(g338
g140
tp3806
tp3807
Rp3808
sg389
g0
(g21
g22
(g338
g389
tp3809
tp3810
Rp3811
sg396
g0
(g21
g22
(g338
g396
tp3812
tp3813
Rp3814
sg403
g0
(g21
g22
(g338
g403
tp3815
tp3816
Rp3817
sg410
g0
(g21
g22
(g338
g410
tp3818
tp3819
Rp3820
sg417
g0
(g21
g22
(g338
g417
tp3821
tp3822
Rp3823
sg233
g0
(g21
g22
(g338
g233
tp3824
tp3825
Rp3826
sg438
g0
(g21
g22
(g338
g438
tp3827
tp3828
Rp3829
sg459
g0
(g21
g22
(g338
g459
tp3830
tp3831
Rp3832
sg466
g0
(g21
g22
(g338
g466
tp3833
tp3834
Rp3835
sg473
g0
(g21
g22
(g338
g473
tp3836
tp3837
Rp3838
sg223
g0
(g21
g22
(g338
g223
tp3839
tp3840
Rp3841
sg483
g0
(g21
g22
(g338
g483
tp3842
tp3843
Rp3844
sg490
g0
(g21
g22
(g338
g490
tp3845
tp3846
Rp3847
sg504
g0
(g21
g22
(g338
g504
tp3848
tp3849
Rp3850
sg511
g0
(g21
g22
(g338
g511
tp3851
tp3852
Rp3853
sg518
g0
(g21
g22
(g338
g518
tp3854
tp3855
Rp3856
sg769
g0
(g21
g22
(g338
g769
tp3857
tp3858
Rp3859
sg539
g0
(g21
g22
(g338
g539
tp3860
tp3861
Rp3862
sg84
g0
(g21
g22
(g338
g84
tp3863
tp3864
Rp3865
sg121
g0
(g21
g22
(g338
g121
tp3866
tp3867
Rp3868
sg18
g0
(g21
g22
(g338
g18
tp3869
tp3870
Rp3871
sg452
g0
(g21
g22
(g338
g452
tp3872
tp3873
Rp3874
sg532
g0
(g21
g22
(g338
g532
tp3875
tp3876
Rp3877
sg77
g0
(g21
g22
(g338
g77
tp3878
tp3879
Rp3880
ssg0
(g4
g5
Ntp3881
Rp3882
(dp3883
g9
S'/w/index.php?title=Links_LS_1997&action=edit&redlink=1'
p3884
sb(dp3885
sg0
(g4
g5
Ntp3886
Rp3887
(dp3888
g9
S'/w/index.php?title=Softstar_Entertainment&action=edit&redlink=1'
p3889
sb(dp3890
sg0
(g4
g5
Ntp3891
Rp3892
(dp3893
g9
S'/wiki/Last_Armageddon'
p3894
sb(dp3895
g56
g0
(g21
g22
(g3892
g56
tp3896
tp3897
Rp3898
ssg0
(g4
g5
Ntp3899
Rp3900
(dp3901
g9
S'/wiki/Pie_in_the_Sky_(game_engine)#Lethal_Tender'
p3902
sb(dp3903
g0
(g4
g5
Ntp3904
Rp3905
(dp3906
g9
S'/wiki/Pie_in_the_Sky_(game_engine)#La_Cosa_Nostra'
p3907
sbg0
(g21
g22
(g3900
g3905
tp3908
tp3909
Rp3910
ssg3905
(dp3911
g3900
g0
(g21
g22
(g3905
g3900
tp3912
tp3913
Rp3914
ssg0
(g4
g5
Ntp3915
Rp3916
(dp3917
g9
S'/w/index.php?title=BrainGrey&action=edit&redlink=1'
p3918
sb(dp3919
sg0
(g4
g5
Ntp3920
Rp3921
(dp3922
g9
S'/wiki/The_Last_Eichhof'
p3923
sb(dp3924
g56
g0
(g21
g22
(g3921
g56
tp3925
tp3926
Rp3927
ssg0
(g4
g5
Ntp3928
Rp3929
(dp3930
g9
S'/wiki/Lexi-Cross'
p3931
sb(dp3932
sg403
(dp3933
g275
g0
(g21
g22
(g403
g275
tp3934
tp3935
Rp3936
sg282
g0
(g21
g22
(g403
g282
tp3937
tp3938
Rp3939
sg621
g0
(g21
g22
(g403
g621
tp3940
tp3941
Rp3942
sg289
g0
(g21
g22
(g403
g289
tp3943
tp3944
Rp3945
sg296
g0
(g21
g22
(g403
g296
tp3946
tp3947
Rp3948
sg270
g0
(g21
g22
(g403
g270
tp3949
tp3950
Rp3951
sg303
g0
(g21
g22
(g403
g303
tp3952
tp3953
Rp3954
sg310
g0
(g21
g22
(g403
g310
tp3955
tp3956
Rp3957
sg317
g0
(g21
g22
(g403
g317
tp3958
tp3959
Rp3960
sg324
g0
(g21
g22
(g403
g324
tp3961
tp3962
Rp3963
sg70
g0
(g21
g22
(g403
g70
tp3964
tp3965
Rp3966
sg331
g0
(g21
g22
(g403
g331
tp3967
tp3968
Rp3969
sg338
g0
(g21
g22
(g403
g338
tp3970
tp3971
Rp3972
sg345
g0
(g21
g22
(g403
g345
tp3973
tp3974
Rp3975
sg359
g0
(g21
g22
(g403
g359
tp3976
tp3977
Rp3978
sg167
g0
(g21
g22
(g403
g167
tp3979
tp3980
Rp3981
sg56
g0
(g21
g22
(g403
g56
tp3982
tp3983
Rp3984
sg779
g0
(g21
g22
(g403
g779
tp3985
tp3986
Rp3987
sg372
g0
(g21
g22
(g403
g372
tp3988
tp3989
Rp3990
sg379
g0
(g21
g22
(g403
g379
tp3991
tp3992
Rp3993
sg140
g0
(g21
g22
(g403
g140
tp3994
tp3995
Rp3996
sg389
g0
(g21
g22
(g403
g389
tp3997
tp3998
Rp3999
sg251
g0
(g21
g22
(g403
g251
tp4000
tp4001
Rp4002
sg396
g0
(g21
g22
(g403
g396
tp4003
tp4004
Rp4005
sg233
g0
(g21
g22
(g403
g233
tp4006
tp4007
Rp4008
sg410
g0
(g21
g22
(g403
g410
tp4009
tp4010
Rp4011
sg417
g0
(g21
g22
(g403
g417
tp4012
tp4013
Rp4014
sg352
g0
(g21
g22
(g403
g352
tp4015
tp4016
Rp4017
sg438
g0
(g21
g22
(g403
g438
tp4018
tp4019
Rp4020
sg44
g0
(g21
g22
(g403
g44
tp4021
tp4022
Rp4023
sg459
g0
(g21
g22
(g403
g459
tp4024
tp4025
Rp4026
sg466
g0
(g21
g22
(g403
g466
tp4027
tp4028
Rp4029
sg473
g0
(g21
g22
(g403
g473
tp4030
tp4031
Rp4032
sg483
g0
(g21
g22
(g403
g483
tp4033
tp4034
Rp4035
sg504
g0
(g21
g22
(g403
g504
tp4036
tp4037
Rp4038
sg511
g0
(g21
g22
(g403
g511
tp4039
tp4040
Rp4041
sg445
g0
(g21
g22
(g403
g445
tp4042
tp4043
Rp4044
sg518
g0
(g21
g22
(g403
g518
tp4045
tp4046
Rp4047
sg525
g0
(g21
g22
(g403
g525
tp4048
tp4049
Rp4050
sg532
g0
(g21
g22
(g403
g532
tp4051
tp4052
Rp4053
sg539
g0
(g21
g22
(g403
g539
tp4054
tp4055
Rp4056
sg84
g0
(g21
g22
(g403
g84
tp4057
tp4058
Rp4059
sg121
g0
(g21
g22
(g403
g121
tp4060
tp4061
Rp4062
sg92
g0
(g21
g22
(g403
g92
tp4063
tp4064
Rp4065
sg452
g0
(g21
g22
(g403
g452
tp4066
tp4067
Rp4068
sg2528
g0
(g21
g22
(g403
g2528
tp4069
tp4070
Rp4071
sg77
g0
(g21
g22
(g403
g77
tp4072
tp4073
Rp4074
ssg0
(g4
g5
Ntp4075
Rp4076
(dp4077
g9
S'/w/index.php?title=Los_Justiciero&action=edit&redlink=1'
p4078
sb(dp4079
sg0
(g4
g5
Ntp4080
Rp4081
(dp4082
g9
S'/wiki/Larn_(video_game)'
p4083
sb(dp4084
sg0
(g4
g5
Ntp4085
Rp4086
(dp4087
g9
S'/w/index.php?title=Links:_Championship_Course_-_Banff_Springs&action=edit&redlink=1'
p4088
sb(dp4089
sg438
(dp4090
g275
g0
(g21
g22
(g438
g275
tp4091
tp4092
Rp4093
sg282
g0
(g21
g22
(g438
g282
tp4094
tp4095
Rp4096
sg289
g0
(g21
g22
(g438
g289
tp4097
tp4098
Rp4099
sg296
g0
(g21
g22
(g438
g296
tp4100
tp4101
Rp4102
sg270
g0
(g21
g22
(g438
g270
tp4103
tp4104
Rp4105
sg303
g0
(g21
g22
(g438
g303
tp4106
tp4107
Rp4108
sg317
g0
(g21
g22
(g438
g317
tp4109
tp4110
Rp4111
sg324
g0
(g21
g22
(g438
g324
tp4112
tp4113
Rp4114
sg331
g0
(g21
g22
(g438
g331
tp4115
tp4116
Rp4117
sg338
g0
(g21
g22
(g438
g338
tp4118
tp4119
Rp4120
sg345
g0
(g21
g22
(g438
g345
tp4121
tp4122
Rp4123
sg652
g0
(g21
g22
(g438
g652
tp4124
tp4125
Rp4126
sg359
g0
(g21
g22
(g438
g359
tp4127
tp4128
Rp4129
sg167
g0
(g21
g22
(g438
g167
tp4130
tp4131
Rp4132
sg56
g0
(g21
g22
(g438
g56
tp4133
tp4134
Rp4135
sg379
g0
(g21
g22
(g438
g379
tp4136
tp4137
Rp4138
sg140
g0
(g21
g22
(g438
g140
tp4139
tp4140
Rp4141
sg389
g0
(g21
g22
(g438
g389
tp4142
tp4143
Rp4144
sg396
g0
(g21
g22
(g438
g396
tp4145
tp4146
Rp4147
sg403
g0
(g21
g22
(g438
g403
tp4148
tp4149
Rp4150
sg410
g0
(g21
g22
(g438
g410
tp4151
tp4152
Rp4153
sg417
g0
(g21
g22
(g438
g417
tp4154
tp4155
Rp4156
sg1474
g0
(g21
g22
(g438
g1474
tp4157
tp4158
Rp4159
sg621
g0
(g21
g22
(g438
g621
tp4160
tp4161
Rp4162
sg714
g0
(g21
g22
(g438
g714
tp4163
tp4164
Rp4165
sg459
g0
(g21
g22
(g438
g459
tp4166
tp4167
Rp4168
sg466
g0
(g21
g22
(g438
g466
tp4169
tp4170
Rp4171
sg473
g0
(g21
g22
(g438
g473
tp4172
tp4173
Rp4174
sg483
g0
(g21
g22
(g438
g483
tp4175
tp4176
Rp4177
sg452
g0
(g21
g22
(g438
g452
tp4178
tp4179
Rp4180
sg504
g0
(g21
g22
(g438
g504
tp4181
tp4182
Rp4183
sg511
g0
(g21
g22
(g438
g511
tp4184
tp4185
Rp4186
sg518
g0
(g21
g22
(g438
g518
tp4187
tp4188
Rp4189
sg539
g0
(g21
g22
(g438
g539
tp4190
tp4191
Rp4192
sg352
g0
(g21
g22
(g438
g352
tp4193
tp4194
Rp4195
sg92
g0
(g21
g22
(g438
g92
tp4196
tp4197
Rp4198
sg558
g0
(g21
g22
(g438
g558
tp4199
tp4200
Rp4201
sg532
g0
(g21
g22
(g438
g532
tp4202
tp4203
Rp4204
sg77
g0
(g21
g22
(g438
g77
tp4205
tp4206
Rp4207
ssg0
(g4
g5
Ntp4208
Rp4209
(dp4210
g9
S'/w/index.php?title=Leisure_Genius_presents_Monopoly&action=edit&redlink=1'
p4211
sb(dp4212
sg209
(dp4213
sg0
(g4
g5
Ntp4214
Rp4215
(dp4216
g9
S'/w/index.php?title=Livingstone_Supongo_2&action=edit&redlink=1'
p4217
sb(dp4218
sg0
(g4
g5
Ntp4219
Rp4220
(dp4221
g9
S'/w/index.php?title=Lorna_(video_game)&action=edit&redlink=1'
p4222
sb(dp4223
sg0
(g4
g5
Ntp4224
Rp4225
(dp4226
g9
S'/w/index.php?title=Lost_Admiral,_The&action=edit&redlink=1'
p4227
sb(dp4228
sg0
(g4
g5
Ntp4229
Rp4230
(dp4231
g9
S'/w/index.php?title=LineWars&action=edit&redlink=1'
p4232
sb(dp4233
sg0
(g4
g5
Ntp4234
Rp4235
(dp4236
g9
S'/wiki/Lords_of_the_Realm'
p4237
sb(dp4238
g683
g0
(g21
g22
(g4235
g683
tp4239
tp4240
Rp4241
sg0
(g4
g5
Ntp4242
Rp4243
(dp4244
g9
S'/wiki/Lords_of_the_Realm_II'
p4245
sbg0
(g21
g22
(g4235
g4243
tp4246
tp4247
Rp4248
ssg1215
(dp4249
g1210
g0
(g21
g22
(g1215
g1210
tp4250
tp4251
Rp4252
ssg1096
(dp4253
g140
g0
(g21
g22
(g1096
g140
tp4254
tp4255
Rp4256
ssg539
(dp4257
g275
g0
(g21
g22
(g539
g275
tp4258
tp4259
Rp4260
sg282
g0
(g21
g22
(g539
g282
tp4261
tp4262
Rp4263
sg289
g0
(g21
g22
(g539
g289
tp4264
tp4265
Rp4266
sg296
g0
(g21
g22
(g539
g296
tp4267
tp4268
Rp4269
sg270
g0
(g21
g22
(g539
g270
tp4270
tp4271
Rp4272
sg303
g0
(g21
g22
(g539
g303
tp4273
tp4274
Rp4275
sg317
g0
(g21
g22
(g539
g317
tp4276
tp4277
Rp4278
sg324
g0
(g21
g22
(g539
g324
tp4279
tp4280
Rp4281
sg331
g0
(g21
g22
(g539
g331
tp4282
tp4283
Rp4284
sg338
g0
(g21
g22
(g539
g338
tp4285
tp4286
Rp4287
sg345
g0
(g21
g22
(g539
g345
tp4288
tp4289
Rp4290
sg652
g0
(g21
g22
(g539
g652
tp4291
tp4292
Rp4293
sg352
g0
(g21
g22
(g539
g352
tp4294
tp4295
Rp4296
sg359
g0
(g21
g22
(g539
g359
tp4297
tp4298
Rp4299
sg2386
g0
(g21
g22
(g539
g2386
tp4300
tp4301
Rp4302
sg18
g0
(g21
g22
(g539
g18
tp4303
tp4304
Rp4305
sg372
g0
(g21
g22
(g539
g372
tp4306
tp4307
Rp4308
sg379
g0
(g21
g22
(g539
g379
tp4309
tp4310
Rp4311
sg140
g0
(g21
g22
(g539
g140
tp4312
tp4313
Rp4314
sg389
g0
(g21
g22
(g539
g389
tp4315
tp4316
Rp4317
sg251
g0
(g21
g22
(g539
g251
tp4318
tp4319
Rp4320
sg396
g0
(g21
g22
(g539
g396
tp4321
tp4322
Rp4323
sg403
g0
(g21
g22
(g539
g403
tp4324
tp4325
Rp4326
sg410
g0
(g21
g22
(g539
g410
tp4327
tp4328
Rp4329
sg417
g0
(g21
g22
(g539
g417
tp4330
tp4331
Rp4332
sg233
g0
(g21
g22
(g539
g233
tp4333
tp4334
Rp4335
sg438
g0
(g21
g22
(g539
g438
tp4336
tp4337
Rp4338
sg445
g0
(g21
g22
(g539
g445
tp4339
tp4340
Rp4341
sg714
g0
(g21
g22
(g539
g714
tp4342
tp4343
Rp4344
sg459
g0
(g21
g22
(g539
g459
tp4345
tp4346
Rp4347
sg466
g0
(g21
g22
(g539
g466
tp4348
tp4349
Rp4350
sg473
g0
(g21
g22
(g539
g473
tp4351
tp4352
Rp4353
sg483
g0
(g21
g22
(g539
g483
tp4354
tp4355
Rp4356
sg490
g0
(g21
g22
(g539
g490
tp4357
tp4358
Rp4359
sg504
g0
(g21
g22
(g539
g504
tp4360
tp4361
Rp4362
sg511
g0
(g21
g22
(g539
g511
tp4363
tp4364
Rp4365
sg518
g0
(g21
g22
(g539
g518
tp4366
tp4367
Rp4368
sg167
g0
(g21
g22
(g539
g167
tp4369
tp4370
Rp4371
sg121
g0
(g21
g22
(g539
g121
tp4372
tp4373
Rp4374
sg452
g0
(g21
g22
(g539
g452
tp4375
tp4376
Rp4377
sg532
g0
(g21
g22
(g539
g532
tp4378
tp4379
Rp4380
sg77
g0
(g21
g22
(g539
g77
tp4381
tp4382
Rp4383
ssg0
(g4
g5
Ntp4384
Rp4385
(dp4386
g9
S'/wiki/Laser_Squad'
p4387
sb(dp4388
g56
g0
(g21
g22
(g4385
g56
tp4389
tp4390
Rp4391
sg1163
g0
(g21
g22
(g4385
g1163
tp4392
tp4393
Rp4394
sg1158
g0
(g21
g22
(g4385
g1158
tp4395
tp4396
Rp4397
ssg927
(dp4398
sg0
(g4
g5
Ntp4399
Rp4400
(dp4401
g9
S'/w/index.php?title=Loader_Larry&action=edit&redlink=1'
p4402
sb(dp4403
sg0
(g4
g5
Ntp4404
Rp4405
(dp4406
g9
S'/w/index.php?title=Lost_Adventures_of_Legend,_The&action=edit&redlink=1'
p4407
sb(dp4408
sg3197
(dp4409
g1027
g0
(g21
g22
(g3197
g1027
tp4410
tp4411
Rp4412
ssg960
(dp4413
g953
g0
(g21
g22
(g960
g953
tp4414
tp4415
Rp4416
sg263
g0
(g21
g22
(g960
g263
tp4417
tp4418
Rp4419
sg714
g0
(g21
g22
(g960
g714
tp4420
tp4421
Rp4422
ssg532
(dp4423
sg0
(g4
g5
Ntp4424
Rp4425
(dp4426
g9
S'/w/index.php?title=Links_386_Pro&action=edit&redlink=1'
p4427
sb(dp4428
sg2112
(dp4429
g714
g0
(g21
g22
(g2112
g714
tp4430
tp4431
Rp4432
sg2132
g0
(g21
g22
(g2112
g2132
tp4433
tp4434
Rp4435
sg258
g0
(g21
g22
(g2112
g258
tp4436
tp4437
Rp4438
sg2125
g0
(g21
g22
(g2112
g2125
tp4439
tp4440
Rp4441
sg2102
g0
(g21
g22
(g2112
g2102
tp4442
tp4443
Rp4444
ssg56
(dp4445
sg0
(g4
g5
Ntp4446
Rp4447
(dp4448
g9
S'/w/index.php?title=Lone_Eagle:_Colombian_Encounter&action=edit&redlink=1'
p4449
sb(dp4450
sg0
(g4
g5
Ntp4451
Rp4452
(dp4453
g9
S'/w/index.php?title=Eon_Software&action=edit&redlink=1'
p4454
sb(dp4455
sg0
(g4
g5
Ntp4456
Rp4457
(dp4458
g9
S'/w/index.php?title=Lombard_RAC_Rally_(1988_video_game)&action=edit&redlink=1'
p4459
sb(dp4460
sg483
(dp4461
g275
g0
(g21
g22
(g483
g275
tp4462
tp4463
Rp4464
sg282
g0
(g21
g22
(g483
g282
tp4465
tp4466
Rp4467
sg289
g0
(g21
g22
(g483
g289
tp4468
tp4469
Rp4470
sg296
g0
(g21
g22
(g483
g296
tp4471
tp4472
Rp4473
sg270
g0
(g21
g22
(g483
g270
tp4474
tp4475
Rp4476
sg303
g0
(g21
g22
(g483
g303
tp4477
tp4478
Rp4479
sg317
g0
(g21
g22
(g483
g317
tp4480
tp4481
Rp4482
sg324
g0
(g21
g22
(g483
g324
tp4483
tp4484
Rp4485
sg504
g0
(g21
g22
(g483
g504
tp4486
tp4487
Rp4488
sg338
g0
(g21
g22
(g483
g338
tp4489
tp4490
Rp4491
sg345
g0
(g21
g22
(g483
g345
tp4492
tp4493
Rp4494
sg359
g0
(g21
g22
(g483
g359
tp4495
tp4496
Rp4497
sg2386
g0
(g21
g22
(g483
g2386
tp4498
tp4499
Rp4500
sg56
g0
(g21
g22
(g483
g56
tp4501
tp4502
Rp4503
sg44
g0
(g21
g22
(g483
g44
tp4504
tp4505
Rp4506
sg379
g0
(g21
g22
(g483
g379
tp4507
tp4508
Rp4509
sg140
g0
(g21
g22
(g483
g140
tp4510
tp4511
Rp4512
sg389
g0
(g21
g22
(g483
g389
tp4513
tp4514
Rp4515
sg396
g0
(g21
g22
(g483
g396
tp4516
tp4517
Rp4518
sg403
g0
(g21
g22
(g483
g403
tp4519
tp4520
Rp4521
sg410
g0
(g21
g22
(g483
g410
tp4522
tp4523
Rp4524
sg417
g0
(g21
g22
(g483
g417
tp4525
tp4526
Rp4527
sg135
g0
(g21
g22
(g483
g135
tp4528
tp4529
Rp4530
sg233
g0
(g21
g22
(g483
g233
tp4531
tp4532
Rp4533
sg438
g0
(g21
g22
(g483
g438
tp4534
tp4535
Rp4536
sg459
g0
(g21
g22
(g483
g459
tp4537
tp4538
Rp4539
sg466
g0
(g21
g22
(g483
g466
tp4540
tp4541
Rp4542
sg473
g0
(g21
g22
(g483
g473
tp4543
tp4544
Rp4545
sg331
g0
(g21
g22
(g483
g331
tp4546
tp4547
Rp4548
sg511
g0
(g21
g22
(g483
g511
tp4549
tp4550
Rp4551
sg518
g0
(g21
g22
(g483
g518
tp4552
tp4553
Rp4554
sg539
g0
(g21
g22
(g483
g539
tp4555
tp4556
Rp4557
sg352
g0
(g21
g22
(g483
g352
tp4558
tp4559
Rp4560
sg92
g0
(g21
g22
(g483
g92
tp4561
tp4562
Rp4563
sg452
g0
(g21
g22
(g483
g452
tp4564
tp4565
Rp4566
sg532
g0
(g21
g22
(g483
g532
tp4567
tp4568
Rp4569
sg77
g0
(g21
g22
(g483
g77
tp4570
tp4571
Rp4572
ssg0
(g4
g5
Ntp4573
Rp4574
(dp4575
g9
S'/wiki/Lode_Runner:_The_Legend_Returns'
p4576
sb(dp4577
g56
g0
(g21
g22
(g4574
g56
tp4578
tp4579
Rp4580
sg1034
g0
(g21
g22
(g4574
g1034
tp4581
tp4582
Rp4583
ssg0
(g4
g5
Ntp4584
Rp4585
(dp4586
g9
S'/w/index.php?title=Links:_Championship_Course_-_The_Belfry&action=edit&redlink=1'
p4587
sb(dp4588
sg372
(dp4589
g749
g0
(g21
g22
(g372
g749
tp4590
tp4591
Rp4592
sg652
g0
(g21
g22
(g372
g652
tp4593
tp4594
Rp4595
sg140
g0
(g21
g22
(g372
g140
tp4596
tp4597
Rp4598
sg3358
g0
(g21
g22
(g372
g3358
tp4599
tp4600
Rp4601
ssg0
(g4
g5
Ntp4602
Rp4603
(dp4604
g9
S'/wiki/Linley%27s_Dungeon_Crawl'
p4605
sb(dp4606
sg44
(dp4607
g140
g0
(g21
g22
(g44
g140
tp4608
tp4609
Rp4610
sg18
g0
(g21
g22
(g44
g18
tp4611
tp4612
Rp4613
ssg0
(g4
g5
Ntp4614
Rp4615
(dp4616
g9
S'/w/index.php?title=Links:_Championship_Course_-_Barton_Creek&action=edit&redlink=1'
p4617
sb(dp4618
sg1163
(dp4619
g4385
g0
(g21
g22
(g1163
g4385
tp4620
tp4621
Rp4622
sg1158
g0
(g21
g22
(g1163
g1158
tp4623
tp4624
Rp4625
ssg352
(dp4626
g452
g0
(g21
g22
(g352
g452
tp4627
tp4628
Rp4629
sg532
g0
(g21
g22
(g352
g532
tp4630
tp4631
Rp4632
ssg18
(dp4633
g621
g0
(g21
g22
(g18
g621
tp4634
tp4635
Rp4636
sg1282
g0
(g21
g22
(g18
g1282
tp4637
tp4638
Rp4639
sg44
g0
(g21
g22
(g18
g44
tp4640
tp4641
Rp4642
ssg511
(dp4643
g275
g0
(g21
g22
(g511
g275
tp4644
tp4645
Rp4646
sg282
g0
(g21
g22
(g511
g282
tp4647
tp4648
Rp4649
sg621
g0
(g21
g22
(g511
g621
tp4650
tp4651
Rp4652
sg289
g0
(g21
g22
(g511
g289
tp4653
tp4654
Rp4655
sg296
g0
(g21
g22
(g511
g296
tp4656
tp4657
Rp4658
sg270
g0
(g21
g22
(g511
g270
tp4659
tp4660
Rp4661
sg303
g0
(g21
g22
(g511
g303
tp4662
tp4663
Rp4664
sg317
g0
(g21
g22
(g511
g317
tp4665
tp4666
Rp4667
sg324
g0
(g21
g22
(g511
g324
tp4668
tp4669
Rp4670
sg70
g0
(g21
g22
(g511
g70
tp4671
tp4672
Rp4673
sg331
g0
(g21
g22
(g511
g331
tp4674
tp4675
Rp4676
sg338
g0
(g21
g22
(g511
g338
tp4677
tp4678
Rp4679
sg389
g0
(g21
g22
(g511
g389
tp4680
tp4681
Rp4682
sg352
g0
(g21
g22
(g511
g352
tp4683
tp4684
Rp4685
sg359
g0
(g21
g22
(g511
g359
tp4686
tp4687
Rp4688
sg167
g0
(g21
g22
(g511
g167
tp4689
tp4690
Rp4691
sg56
g0
(g21
g22
(g511
g56
tp4692
tp4693
Rp4694
sg372
g0
(g21
g22
(g511
g372
tp4695
tp4696
Rp4697
sg379
g0
(g21
g22
(g511
g379
tp4698
tp4699
Rp4700
sg140
g0
(g21
g22
(g511
g140
tp4701
tp4702
Rp4703
sg345
g0
(g21
g22
(g511
g345
tp4704
tp4705
Rp4706
sg396
g0
(g21
g22
(g511
g396
tp4707
tp4708
Rp4709
sg403
g0
(g21
g22
(g511
g403
tp4710
tp4711
Rp4712
sg410
g0
(g21
g22
(g511
g410
tp4713
tp4714
Rp4715
sg417
g0
(g21
g22
(g511
g417
tp4716
tp4717
Rp4718
sg1481
g0
(g21
g22
(g511
g1481
tp4719
tp4720
Rp4721
sg233
g0
(g21
g22
(g511
g233
tp4722
tp4723
Rp4724
sg438
g0
(g21
g22
(g511
g438
tp4725
tp4726
Rp4727
sg714
g0
(g21
g22
(g511
g714
tp4728
tp4729
Rp4730
sg459
g0
(g21
g22
(g511
g459
tp4731
tp4732
Rp4733
sg466
g0
(g21
g22
(g511
g466
tp4734
tp4735
Rp4736
sg473
g0
(g21
g22
(g511
g473
tp4737
tp4738
Rp4739
sg483
g0
(g21
g22
(g511
g483
tp4740
tp4741
Rp4742
sg504
g0
(g21
g22
(g511
g504
tp4743
tp4744
Rp4745
sg518
g0
(g21
g22
(g511
g518
tp4746
tp4747
Rp4748
sg525
g0
(g21
g22
(g511
g525
tp4749
tp4750
Rp4751
sg539
g0
(g21
g22
(g511
g539
tp4752
tp4753
Rp4754
sg84
g0
(g21
g22
(g511
g84
tp4755
tp4756
Rp4757
sg121
g0
(g21
g22
(g511
g121
tp4758
tp4759
Rp4760
sg92
g0
(g21
g22
(g511
g92
tp4761
tp4762
Rp4763
sg18
g0
(g21
g22
(g511
g18
tp4764
tp4765
Rp4766
sg452
g0
(g21
g22
(g511
g452
tp4767
tp4768
Rp4769
sg532
g0
(g21
g22
(g511
g532
tp4770
tp4771
Rp4772
ssg1974
(dp4773
g92
g0
(g21
g22
(g1974
g92
tp4774
tp4775
Rp4776
sg258
g0
(g21
g22
(g1974
g258
tp4777
tp4778
Rp4779
ssg0
(g4
g5
Ntp4780
Rp4781
(dp4782
g9
S'/w/index.php?title=Tatsumi_Electronics&action=edit&redlink=1'
p4783
sb(dp4784
sg0
(g4
g5
Ntp4785
Rp4786
(dp4787
g9
S'/wiki/Terra_Nova_Development'
p4788
sb(dp4789
g140
g0
(g21
g22
(g4786
g140
tp4790
tp4791
Rp4792
ssg714
(dp4793
g621
g0
(g21
g22
(g714
g621
tp4794
tp4795
Rp4796
sg258
g0
(g21
g22
(g714
g258
tp4797
tp4798
Rp4799
sg2102
g0
(g21
g22
(g714
g2102
tp4800
tp4801
Rp4802
sg263
g0
(g21
g22
(g714
g263
tp4803
tp4804
Rp4805
sg1474
g0
(g21
g22
(g714
g1474
tp4806
tp4807
Rp4808
sg2112
g0
(g21
g22
(g714
g2112
tp4809
tp4810
Rp4811
ssg0
(g4
g5
Ntp4812
Rp4813
(dp4814
g9
S'/w/index.php?title=Livingstone,_I_Presume%3F&action=edit&redlink=1'
p4815
sb(dp4816
sg827
(dp4817
g819
g0
(g21
g22
(g827
g819
tp4818
tp4819
Rp4820
ssg0
(g4
g5
Ntp4821
Rp4822
(dp4823
g9
S'/w/index.php?title=Locus_(video_game)&action=edit&redlink=1'
p4824
sb(dp4825
sg417
(dp4826
g275
g0
(g21
g22
(g417
g275
tp4827
tp4828
Rp4829
sg282
g0
(g21
g22
(g417
g282
tp4830
tp4831
Rp4832
sg289
g0
(g21
g22
(g417
g289
tp4833
tp4834
Rp4835
sg296
g0
(g21
g22
(g417
g296
tp4836
tp4837
Rp4838
sg270
g0
(g21
g22
(g417
g270
tp4839
tp4840
Rp4841
sg303
g0
(g21
g22
(g417
g303
tp4842
tp4843
Rp4844
sg317
g0
(g21
g22
(g417
g317
tp4845
tp4846
Rp4847
sg324
g0
(g21
g22
(g417
g324
tp4848
tp4849
Rp4850
sg331
g0
(g21
g22
(g417
g331
tp4851
tp4852
Rp4853
sg338
g0
(g21
g22
(g417
g338
tp4854
tp4855
Rp4856
sg345
g0
(g21
g22
(g417
g345
tp4857
tp4858
Rp4859
sg652
g0
(g21
g22
(g417
g652
tp4860
tp4861
Rp4862
sg352
g0
(g21
g22
(g417
g352
tp4863
tp4864
Rp4865
sg359
g0
(g21
g22
(g417
g359
tp4866
tp4867
Rp4868
sg2386
g0
(g21
g22
(g417
g2386
tp4869
tp4870
Rp4871
sg56
g0
(g21
g22
(g417
g56
tp4872
tp4873
Rp4874
sg44
g0
(g21
g22
(g417
g44
tp4875
tp4876
Rp4877
sg379
g0
(g21
g22
(g417
g379
tp4878
tp4879
Rp4880
sg140
g0
(g21
g22
(g417
g140
tp4881
tp4882
Rp4883
sg389
g0
(g21
g22
(g417
g389
tp4884
tp4885
Rp4886
sg396
g0
(g21
g22
(g417
g396
tp4887
tp4888
Rp4889
sg683
g0
(g21
g22
(g417
g683
tp4890
tp4891
Rp4892
sg403
g0
(g21
g22
(g417
g403
tp4893
tp4894
Rp4895
sg410
g0
(g21
g22
(g417
g410
tp4896
tp4897
Rp4898
sg424
g0
(g21
g22
(g417
g424
tp4899
tp4900
Rp4901
sg233
g0
(g21
g22
(g417
g233
tp4902
tp4903
Rp4904
sg438
g0
(g21
g22
(g417
g438
tp4905
tp4906
Rp4907
sg1210
g0
(g21
g22
(g417
g1210
tp4908
tp4909
Rp4910
sg445
g0
(g21
g22
(g417
g445
tp4911
tp4912
Rp4913
sg452
g0
(g21
g22
(g417
g452
tp4914
tp4915
Rp4916
sg714
g0
(g21
g22
(g417
g714
tp4917
tp4918
Rp4919
sg459
g0
(g21
g22
(g417
g459
tp4920
tp4921
Rp4922
sg466
g0
(g21
g22
(g417
g466
tp4923
tp4924
Rp4925
sg473
g0
(g21
g22
(g417
g473
tp4926
tp4927
Rp4928
sg483
g0
(g21
g22
(g417
g483
tp4929
tp4930
Rp4931
sg497
g0
(g21
g22
(g417
g497
tp4932
tp4933
Rp4934
sg372
g0
(g21
g22
(g417
g372
tp4935
tp4936
Rp4937
sg504
g0
(g21
g22
(g417
g504
tp4938
tp4939
Rp4940
sg511
g0
(g21
g22
(g417
g511
tp4941
tp4942
Rp4943
sg742
g0
(g21
g22
(g417
g742
tp4944
tp4945
Rp4946
sg756
g0
(g21
g22
(g417
g756
tp4947
tp4948
Rp4949
sg518
g0
(g21
g22
(g417
g518
tp4950
tp4951
Rp4952
sg525
g0
(g21
g22
(g417
g525
tp4953
tp4954
Rp4955
sg539
g0
(g21
g22
(g417
g539
tp4956
tp4957
Rp4958
sg84
g0
(g21
g22
(g417
g84
tp4959
tp4960
Rp4961
sg431
g0
(g21
g22
(g417
g431
tp4962
tp4963
Rp4964
sg92
g0
(g21
g22
(g417
g92
tp4965
tp4966
Rp4967
sg18
g0
(g21
g22
(g417
g18
tp4968
tp4969
Rp4970
sg558
g0
(g21
g22
(g417
g558
tp4971
tp4972
Rp4973
sg532
g0
(g21
g22
(g417
g532
tp4974
tp4975
Rp4976
sg1004
g0
(g21
g22
(g417
g1004
tp4977
tp4978
Rp4979
ssg0
(g4
g5
Ntp4980
Rp4981
(dp4982
g9
S'/w/index.php?title=Links:_Championship_Course_-_Cog_Hill_Dubsdread&action=edit&redlink=1'
p4983
sb(dp4984
sg504
(dp4985
g275
g0
(g21
g22
(g504
g275
tp4986
tp4987
Rp4988
sg282
g0
(g21
g22
(g504
g282
tp4989
tp4990
Rp4991
sg621
g0
(g21
g22
(g504
g621
tp4992
tp4993
Rp4994
sg289
g0
(g21
g22
(g504
g289
tp4995
tp4996
Rp4997
sg270
g0
(g21
g22
(g504
g270
tp4998
tp4999
Rp5000
sg303
g0
(g21
g22
(g504
g303
tp5001
tp5002
Rp5003
sg317
g0
(g21
g22
(g504
g317
tp5004
tp5005
Rp5006
sg324
g0
(g21
g22
(g504
g324
tp5007
tp5008
Rp5009
sg296
g0
(g21
g22
(g504
g296
tp5010
tp5011
Rp5012
sg338
g0
(g21
g22
(g504
g338
tp5013
tp5014
Rp5015
sg345
g0
(g21
g22
(g504
g345
tp5016
tp5017
Rp5018
sg352
g0
(g21
g22
(g504
g352
tp5019
tp5020
Rp5021
sg359
g0
(g21
g22
(g504
g359
tp5022
tp5023
Rp5024
sg167
g0
(g21
g22
(g504
g167
tp5025
tp5026
Rp5027
sg56
g0
(g21
g22
(g504
g56
tp5028
tp5029
Rp5030
sg372
g0
(g21
g22
(g504
g372
tp5031
tp5032
Rp5033
sg379
g0
(g21
g22
(g504
g379
tp5034
tp5035
Rp5036
sg140
g0
(g21
g22
(g504
g140
tp5037
tp5038
Rp5039
sg389
g0
(g21
g22
(g504
g389
tp5040
tp5041
Rp5042
sg396
g0
(g21
g22
(g504
g396
tp5043
tp5044
Rp5045
sg403
g0
(g21
g22
(g504
g403
tp5046
tp5047
Rp5048
sg410
g0
(g21
g22
(g504
g410
tp5049
tp5050
Rp5051
sg417
g0
(g21
g22
(g504
g417
tp5052
tp5053
Rp5054
sg233
g0
(g21
g22
(g504
g233
tp5055
tp5056
Rp5057
sg438
g0
(g21
g22
(g504
g438
tp5058
tp5059
Rp5060
sg742
g0
(g21
g22
(g504
g742
tp5061
tp5062
Rp5063
sg714
g0
(g21
g22
(g504
g714
tp5064
tp5065
Rp5066
sg459
g0
(g21
g22
(g504
g459
tp5067
tp5068
Rp5069
sg466
g0
(g21
g22
(g504
g466
tp5070
tp5071
Rp5072
sg473
g0
(g21
g22
(g504
g473
tp5073
tp5074
Rp5075
sg483
g0
(g21
g22
(g504
g483
tp5076
tp5077
Rp5078
sg452
g0
(g21
g22
(g504
g452
tp5079
tp5080
Rp5081
sg331
g0
(g21
g22
(g504
g331
tp5082
tp5083
Rp5084
sg511
g0
(g21
g22
(g504
g511
tp5085
tp5086
Rp5087
sg155
g0
(g21
g22
(g504
g155
tp5088
tp5089
Rp5090
sg518
g0
(g21
g22
(g504
g518
tp5091
tp5092
Rp5093
sg525
g0
(g21
g22
(g504
g525
tp5094
tp5095
Rp5096
sg539
g0
(g21
g22
(g504
g539
tp5097
tp5098
Rp5099
sg84
g0
(g21
g22
(g504
g84
tp5100
tp5101
Rp5102
sg431
g0
(g21
g22
(g504
g431
tp5103
tp5104
Rp5105
sg558
g0
(g21
g22
(g504
g558
tp5106
tp5107
Rp5108
sg532
g0
(g21
g22
(g504
g532
tp5109
tp5110
Rp5111
sg1004
g0
(g21
g22
(g504
g1004
tp5112
tp5113
Rp5114
ssg834
(dp5115
g819
g0
(g21
g22
(g834
g819
tp5116
tp5117
Rp5118
ssg445
(dp5119
sg742
(dp5120
sg518
(dp5121
g275
g0
(g21
g22
(g518
g275
tp5122
tp5123
Rp5124
sg282
g0
(g21
g22
(g518
g282
tp5125
tp5126
Rp5127
sg621
g0
(g21
g22
(g518
g621
tp5128
tp5129
Rp5130
sg289
g0
(g21
g22
(g518
g289
tp5131
tp5132
Rp5133
sg296
g0
(g21
g22
(g518
g296
tp5134
tp5135
Rp5136
sg270
g0
(g21
g22
(g518
g270
tp5137
tp5138
Rp5139
sg303
g0
(g21
g22
(g518
g303
tp5140
tp5141
Rp5142
sg317
g0
(g21
g22
(g518
g317
tp5143
tp5144
Rp5145
sg324
g0
(g21
g22
(g518
g324
tp5146
tp5147
Rp5148
sg331
g0
(g21
g22
(g518
g331
tp5149
tp5150
Rp5151
sg338
g0
(g21
g22
(g518
g338
tp5152
tp5153
Rp5154
sg345
g0
(g21
g22
(g518
g345
tp5155
tp5156
Rp5157
sg352
g0
(g21
g22
(g518
g352
tp5158
tp5159
Rp5160
sg359
g0
(g21
g22
(g518
g359
tp5161
tp5162
Rp5163
sg812
g0
(g21
g22
(g518
g812
tp5164
tp5165
Rp5166
sg167
g0
(g21
g22
(g518
g167
tp5167
tp5168
Rp5169
sg1004
g0
(g21
g22
(g518
g1004
tp5170
tp5171
Rp5172
sg56
g0
(g21
g22
(g518
g56
tp5173
tp5174
Rp5175
sg372
g0
(g21
g22
(g518
g372
tp5176
tp5177
Rp5178
sg379
g0
(g21
g22
(g518
g379
tp5179
tp5180
Rp5181
sg389
g0
(g21
g22
(g518
g389
tp5182
tp5183
Rp5184
sg251
g0
(g21
g22
(g518
g251
tp5185
tp5186
Rp5187
sg396
g0
(g21
g22
(g518
g396
tp5188
tp5189
Rp5190
sg403
g0
(g21
g22
(g518
g403
tp5191
tp5192
Rp5193
sg410
g0
(g21
g22
(g518
g410
tp5194
tp5195
Rp5196
sg417
g0
(g21
g22
(g518
g417
tp5197
tp5198
Rp5199
sg1481
g0
(g21
g22
(g518
g1481
tp5200
tp5201
Rp5202
sg233
g0
(g21
g22
(g518
g233
tp5203
tp5204
Rp5205
sg438
g0
(g21
g22
(g518
g438
tp5206
tp5207
Rp5208
sg1210
g0
(g21
g22
(g518
g1210
tp5209
tp5210
Rp5211
sg44
g0
(g21
g22
(g518
g44
tp5212
tp5213
Rp5214
sg714
g0
(g21
g22
(g518
g714
tp5215
tp5216
Rp5217
sg459
g0
(g21
g22
(g518
g459
tp5218
tp5219
Rp5220
sg466
g0
(g21
g22
(g518
g466
tp5221
tp5222
Rp5223
sg532
g0
(g21
g22
(g518
g532
tp5224
tp5225
Rp5226
sg473
g0
(g21
g22
(g518
g473
tp5227
tp5228
Rp5229
sg223
g0
(g21
g22
(g518
g223
tp5230
tp5231
Rp5232
sg483
g0
(g21
g22
(g518
g483
tp5233
tp5234
Rp5235
sg490
g0
(g21
g22
(g518
g490
tp5236
tp5237
Rp5238
sg452
g0
(g21
g22
(g518
g452
tp5239
tp5240
Rp5241
sg504
g0
(g21
g22
(g518
g504
tp5242
tp5243
Rp5244
sg997
g0
(g21
g22
(g518
g997
tp5245
tp5246
Rp5247
sg511
g0
(g21
g22
(g518
g511
tp5248
tp5249
Rp5250
sg155
g0
(g21
g22
(g518
g155
tp5251
tp5252
Rp5253
sg749
g0
(g21
g22
(g518
g749
tp5254
tp5255
Rp5256
sg445
g0
(g21
g22
(g518
g445
tp5257
tp5258
Rp5259
sg140
g0
(g21
g22
(g518
g140
tp5260
tp5261
Rp5262
sg525
g0
(g21
g22
(g518
g525
tp5263
tp5264
Rp5265
sg2386
g0
(g21
g22
(g518
g2386
tp5266
tp5267
Rp5268
sg539
g0
(g21
g22
(g518
g539
tp5269
tp5270
Rp5271
sg84
g0
(g21
g22
(g518
g84
tp5272
tp5273
Rp5274
sg121
g0
(g21
g22
(g518
g121
tp5275
tp5276
Rp5277
sg92
g0
(g21
g22
(g518
g92
tp5278
tp5279
Rp5280
sg18
g0
(g21
g22
(g518
g18
tp5281
tp5282
Rp5283
sg558
g0
(g21
g22
(g518
g558
tp5284
tp5285
Rp5286
sg565
g0
(g21
g22
(g518
g565
tp5287
tp5288
Rp5289
sg77
g0
(g21
g22
(g518
g77
tp5290
tp5291
Rp5292
ssg0
(g4
g5
Ntp5293
Rp5294
(dp5295
g9
S'/w/index.php?title=Lost_Episodes_of_Doom,_The&action=edit&redlink=1'
p5296
sb(dp5297
sg0
(g4
g5
Ntp5298
Rp5299
(dp5300
g9
S'/wiki/Lords_of_the_Realm_II:_Siege_Pack'
p5301
sb(dp5302
g683
g0
(g21
g22
(g5299
g683
tp5303
tp5304
Rp5305
sg121
g0
(g21
g22
(g5299
g121
tp5306
tp5307
Rp5308
sg4235
g0
(g21
g22
(g5299
g4235
tp5309
tp5310
Rp5311
ssg0
(g4
g5
Ntp5312
Rp5313
(dp5314
g9
S'/wiki/Lotus_III:_The_Ultimate_Challenge'
p5315
sb(dp5316
g0
(g4
g5
Ntp5317
Rp5318
(dp5319
g9
S'/wiki/Magnetic_Fields_(computer_game_developer)'
p5320
sbg0
(g21
g22
(g5313
g5318
tp5321
tp5322
Rp5323
sg56
g0
(g21
g22
(g5313
g56
tp5324
tp5325
Rp5326
sg135
g0
(g21
g22
(g5313
g135
tp5327
tp5328
Rp5329
sg44
g0
(g21
g22
(g5313
g44
tp5330
tp5331
Rp5332
ssg1195
(dp5333
g140
g0
(g21
g22
(g1195
g140
tp5334
tp5335
Rp5336
sg1187
g0
(g21
g22
(g1195
g1187
tp5337
tp5338
Rp5339
sg56
g0
(g21
g22
(g1195
g56
tp5340
tp5341
Rp5342
ssg2528
(dp5343
g128
g0
(g21
g22
(g2528
g128
tp5344
tp5345
Rp5346
sg652
g0
(g21
g22
(g2528
g652
tp5347
tp5348
Rp5349
sg372
g0
(g21
g22
(g2528
g372
tp5350
tp5351
Rp5352
sg223
g0
(g21
g22
(g2528
g223
tp5353
tp5354
Rp5355
sg683
g0
(g21
g22
(g2528
g683
tp5356
tp5357
Rp5358
sg92
g0
(g21
g22
(g2528
g92
tp5359
tp5360
Rp5361
ssg0
(g4
g5
Ntp5362
Rp5363
(dp5364
g9
S'/w/index.php?title=La_Diosa_de_Cozumel&action=edit&redlink=1'
p5365
sb(dp5366
sg0
(g4
g5
Ntp5367
Rp5368
(dp5369
g9
S'/wiki/Leisure_Suit_Larry_7:_Love_for_Sail!'
p5370
sb(dp5371
g56
g0
(g21
g22
(g5368
g56
tp5372
tp5373
Rp5374
sg107
g0
(g21
g22
(g5368
g107
tp5375
tp5376
Rp5377
sg99
g0
(g21
g22
(g5368
g99
tp5378
tp5379
Rp5380
sg114
g0
(g21
g22
(g5368
g114
tp5381
tp5382
Rp5383
sg128
g0
(g21
g22
(g5368
g128
tp5384
tp5385
Rp5386
ssg1807
(dp5387
g3905
g0
(g21
g22
(g1807
g3905
tp5388
tp5389
Rp5390
sg3900
g0
(g21
g22
(g1807
g3900
tp5391
tp5392
Rp5393
ssg3172
(dp5394
g3164
g0
(g21
g22
(g3172
g3164
tp5395
tp5396
Rp5397
ssg303
(dp5398
g275
g0
(g21
g22
(g303
g275
tp5399
tp5400
Rp5401
sg282
g0
(g21
g22
(g303
g282
tp5402
tp5403
Rp5404
sg289
g0
(g21
g22
(g303
g289
tp5405
tp5406
Rp5407
sg296
g0
(g21
g22
(g303
g296
tp5408
tp5409
Rp5410
sg270
g0
(g21
g22
(g303
g270
tp5411
tp5412
Rp5413
sg317
g0
(g21
g22
(g303
g317
tp5414
tp5415
Rp5416
sg324
g0
(g21
g22
(g303
g324
tp5417
tp5418
Rp5419
sg504
g0
(g21
g22
(g303
g504
tp5420
tp5421
Rp5422
sg338
g0
(g21
g22
(g303
g338
tp5423
tp5424
Rp5425
sg345
g0
(g21
g22
(g303
g345
tp5426
tp5427
Rp5428
sg359
g0
(g21
g22
(g303
g359
tp5429
tp5430
Rp5431
sg56
g0
(g21
g22
(g303
g56
tp5432
tp5433
Rp5434
sg379
g0
(g21
g22
(g303
g379
tp5435
tp5436
Rp5437
sg389
g0
(g21
g22
(g303
g389
tp5438
tp5439
Rp5440
sg396
g0
(g21
g22
(g303
g396
tp5441
tp5442
Rp5443
sg403
g0
(g21
g22
(g303
g403
tp5444
tp5445
Rp5446
sg410
g0
(g21
g22
(g303
g410
tp5447
tp5448
Rp5449
sg417
g0
(g21
g22
(g303
g417
tp5450
tp5451
Rp5452
sg438
g0
(g21
g22
(g303
g438
tp5453
tp5454
Rp5455
sg459
g0
(g21
g22
(g303
g459
tp5456
tp5457
Rp5458
sg466
g0
(g21
g22
(g303
g466
tp5459
tp5460
Rp5461
sg473
g0
(g21
g22
(g303
g473
tp5462
tp5463
Rp5464
sg483
g0
(g21
g22
(g303
g483
tp5465
tp5466
Rp5467
sg331
g0
(g21
g22
(g303
g331
tp5468
tp5469
Rp5470
sg511
g0
(g21
g22
(g303
g511
tp5471
tp5472
Rp5473
sg518
g0
(g21
g22
(g303
g518
tp5474
tp5475
Rp5476
sg539
g0
(g21
g22
(g303
g539
tp5477
tp5478
Rp5479
sg352
g0
(g21
g22
(g303
g352
tp5480
tp5481
Rp5482
sg452
g0
(g21
g22
(g303
g452
tp5483
tp5484
Rp5485
sg532
g0
(g21
g22
(g303
g532
tp5486
tp5487
Rp5488
ssg0
(g4
g5
Ntp5489
Rp5490
(dp5491
g9
S'/wiki/Lion_(game)'
p5492
sb(dp5493
g140
g0
(g21
g22
(g5490
g140
tp5494
tp5495
Rp5496
ssg0
(g4
g5
Ntp5497
Rp5498
(dp5499
g9
S'/w/index.php?title=Clockwork_Games&action=edit&redlink=1'
p5500
sb(dp5501
sg63
(dp5502
g56
g0
(g21
g22
(g63
g56
tp5503
tp5504
Rp5505
sg70
g0
(g21
g22
(g63
g70
tp5506
tp5507
Rp5508
sg51
g0
(g21
g22
(g63
g51
tp5509
tp5510
Rp5511
sg77
g0
(g21
g22
(g63
g77
tp5512
tp5513
Rp5514
ssg359
(dp5515
g275
g0
(g21
g22
(g359
g275
tp5516
tp5517
Rp5518
sg282
g0
(g21
g22
(g359
g282
tp5519
tp5520
Rp5521
sg289
g0
(g21
g22
(g359
g289
tp5522
tp5523
Rp5524
sg296
g0
(g21
g22
(g359
g296
tp5525
tp5526
Rp5527
sg270
g0
(g21
g22
(g359
g270
tp5528
tp5529
Rp5530
sg303
g0
(g21
g22
(g359
g303
tp5531
tp5532
Rp5533
sg317
g0
(g21
g22
(g359
g317
tp5534
tp5535
Rp5536
sg324
g0
(g21
g22
(g359
g324
tp5537
tp5538
Rp5539
sg504
g0
(g21
g22
(g359
g504
tp5540
tp5541
Rp5542
sg338
g0
(g21
g22
(g359
g338
tp5543
tp5544
Rp5545
sg345
g0
(g21
g22
(g359
g345
tp5546
tp5547
Rp5548
sg1163
g0
(g21
g22
(g359
g1163
tp5549
tp5550
Rp5551
sg56
g0
(g21
g22
(g359
g56
tp5552
tp5553
Rp5554
sg379
g0
(g21
g22
(g359
g379
tp5555
tp5556
Rp5557
sg389
g0
(g21
g22
(g359
g389
tp5558
tp5559
Rp5560
sg396
g0
(g21
g22
(g359
g396
tp5561
tp5562
Rp5563
sg403
g0
(g21
g22
(g359
g403
tp5564
tp5565
Rp5566
sg410
g0
(g21
g22
(g359
g410
tp5567
tp5568
Rp5569
sg417
g0
(g21
g22
(g359
g417
tp5570
tp5571
Rp5572
sg438
g0
(g21
g22
(g359
g438
tp5573
tp5574
Rp5575
sg714
g0
(g21
g22
(g359
g714
tp5576
tp5577
Rp5578
sg459
g0
(g21
g22
(g359
g459
tp5579
tp5580
Rp5581
sg466
g0
(g21
g22
(g359
g466
tp5582
tp5583
Rp5584
sg473
g0
(g21
g22
(g359
g473
tp5585
tp5586
Rp5587
sg483
g0
(g21
g22
(g359
g483
tp5588
tp5589
Rp5590
sg331
g0
(g21
g22
(g359
g331
tp5591
tp5592
Rp5593
sg511
g0
(g21
g22
(g359
g511
tp5594
tp5595
Rp5596
sg518
g0
(g21
g22
(g359
g518
tp5597
tp5598
Rp5599
sg525
g0
(g21
g22
(g359
g525
tp5600
tp5601
Rp5602
sg532
g0
(g21
g22
(g359
g532
tp5603
tp5604
Rp5605
sg539
g0
(g21
g22
(g359
g539
tp5606
tp5607
Rp5608
sg352
g0
(g21
g22
(g359
g352
tp5609
tp5610
Rp5611
sg452
g0
(g21
g22
(g359
g452
tp5612
tp5613
Rp5614
sg565
g0
(g21
g22
(g359
g565
tp5615
tp5616
Rp5617
ssg345
(dp5618
g275
g0
(g21
g22
(g345
g275
tp5619
tp5620
Rp5621
sg282
g0
(g21
g22
(g345
g282
tp5622
tp5623
Rp5624
sg621
g0
(g21
g22
(g345
g621
tp5625
tp5626
Rp5627
sg289
g0
(g21
g22
(g345
g289
tp5628
tp5629
Rp5630
sg1573
g0
(g21
g22
(g345
g1573
tp5631
tp5632
Rp5633
sg296
g0
(g21
g22
(g345
g296
tp5634
tp5635
Rp5636
sg270
g0
(g21
g22
(g345
g270
tp5637
tp5638
Rp5639
sg303
g0
(g21
g22
(g345
g303
tp5640
tp5641
Rp5642
sg317
g0
(g21
g22
(g345
g317
tp5643
tp5644
Rp5645
sg324
g0
(g21
g22
(g345
g324
tp5646
tp5647
Rp5648
sg70
g0
(g21
g22
(g345
g70
tp5649
tp5650
Rp5651
sg331
g0
(g21
g22
(g345
g331
tp5652
tp5653
Rp5654
sg338
g0
(g21
g22
(g345
g338
tp5655
tp5656
Rp5657
sg389
g0
(g21
g22
(g345
g389
tp5658
tp5659
Rp5660
sg652
g0
(g21
g22
(g345
g652
tp5661
tp5662
Rp5663
sg359
g0
(g21
g22
(g345
g359
tp5664
tp5665
Rp5666
sg167
g0
(g21
g22
(g345
g167
tp5667
tp5668
Rp5669
sg1004
g0
(g21
g22
(g345
g1004
tp5670
tp5671
Rp5672
sg56
g0
(g21
g22
(g345
g56
tp5673
tp5674
Rp5675
sg18
g0
(g21
g22
(g345
g18
tp5676
tp5677
Rp5678
sg44
g0
(g21
g22
(g345
g44
tp5679
tp5680
Rp5681
sg379
g0
(g21
g22
(g345
g379
tp5682
tp5683
Rp5684
sg140
g0
(g21
g22
(g345
g140
tp5685
tp5686
Rp5687
sg396
g0
(g21
g22
(g345
g396
tp5688
tp5689
Rp5690
sg403
g0
(g21
g22
(g345
g403
tp5691
tp5692
Rp5693
sg410
g0
(g21
g22
(g345
g410
tp5694
tp5695
Rp5696
sg417
g0
(g21
g22
(g345
g417
tp5697
tp5698
Rp5699
sg135
g0
(g21
g22
(g345
g135
tp5700
tp5701
Rp5702
sg233
g0
(g21
g22
(g345
g233
tp5703
tp5704
Rp5705
sg438
g0
(g21
g22
(g345
g438
tp5706
tp5707
Rp5708
sg714
g0
(g21
g22
(g345
g714
tp5709
tp5710
Rp5711
sg459
g0
(g21
g22
(g345
g459
tp5712
tp5713
Rp5714
sg466
g0
(g21
g22
(g345
g466
tp5715
tp5716
Rp5717
sg473
g0
(g21
g22
(g345
g473
tp5718
tp5719
Rp5720
sg483
g0
(g21
g22
(g345
g483
tp5721
tp5722
Rp5723
sg504
g0
(g21
g22
(g345
g504
tp5724
tp5725
Rp5726
sg511
g0
(g21
g22
(g345
g511
tp5727
tp5728
Rp5729
sg749
g0
(g21
g22
(g345
g749
tp5730
tp5731
Rp5732
sg518
g0
(g21
g22
(g345
g518
tp5733
tp5734
Rp5735
sg539
g0
(g21
g22
(g345
g539
tp5736
tp5737
Rp5738
sg84
g0
(g21
g22
(g345
g84
tp5739
tp5740
Rp5741
sg352
g0
(g21
g22
(g345
g352
tp5742
tp5743
Rp5744
sg92
g0
(g21
g22
(g345
g92
tp5745
tp5746
Rp5747
sg1734
g0
(g21
g22
(g345
g1734
tp5748
tp5749
Rp5750
sg452
g0
(g21
g22
(g345
g452
tp5751
tp5752
Rp5753
sg532
g0
(g21
g22
(g345
g532
tp5754
tp5755
Rp5756
sg77
g0
(g21
g22
(g345
g77
tp5757
tp5758
Rp5759
ssg2386
(dp5760
sg1940
(dp5761
sg937
(dp5762
g621
g0
(g21
g22
(g937
g621
tp5763
tp5764
Rp5765
sg593
g0
(g21
g22
(g937
g593
tp5766
tp5767
Rp5768
ssg121
(dp5769
g128
g0
(g21
g22
(g121
g128
tp5770
tp5771
Rp5772
sg652
g0
(g21
g22
(g121
g652
tp5773
tp5774
Rp5775
sg372
g0
(g21
g22
(g121
g372
tp5776
tp5777
Rp5778
sg223
g0
(g21
g22
(g121
g223
tp5779
tp5780
Rp5781
sg683
g0
(g21
g22
(g121
g683
tp5782
tp5783
Rp5784
sg92
g0
(g21
g22
(g121
g92
tp5785
tp5786
Rp5787
ssg0
(g4
g5
Ntp5788
Rp5789
(dp5790
g9
S'/wiki/The_Labyrinth_of_Time'
p5791
sb(dp5792
g4786
g0
(g21
g22
(g5789
g4786
tp5793
tp5794
Rp5795
sg140
g0
(g21
g22
(g5789
g140
tp5796
tp5797
Rp5798
ssg114
(dp5799
g56
g0
(g21
g22
(g114
g56
tp5800
tp5801
Rp5802
sg107
g0
(g21
g22
(g114
g107
tp5803
tp5804
Rp5805
sg99
g0
(g21
g22
(g114
g99
tp5806
tp5807
Rp5808
sg121
g0
(g21
g22
(g114
g121
tp5809
tp5810
Rp5811
sg128
g0
(g21
g22
(g114
g128
tp5812
tp5813
Rp5814
ssg0
(g4
g5
Ntp5815
Rp5816
(dp5817
g9
S'/w/index.php?title=Loadstar:_The_Legend_of_Tully_Bodine&action=edit&redlink=1'
p5818
sb(dp5819
sg1605
(dp5820
sg466
(dp5821
g275
g0
(g21
g22
(g466
g275
tp5822
tp5823
Rp5824
sg282
g0
(g21
g22
(g466
g282
tp5825
tp5826
Rp5827
sg289
g0
(g21
g22
(g466
g289
tp5828
tp5829
Rp5830
sg296
g0
(g21
g22
(g466
g296
tp5831
tp5832
Rp5833
sg270
g0
(g21
g22
(g466
g270
tp5834
tp5835
Rp5836
sg303
g0
(g21
g22
(g466
g303
tp5837
tp5838
Rp5839
sg317
g0
(g21
g22
(g466
g317
tp5840
tp5841
Rp5842
sg324
g0
(g21
g22
(g466
g324
tp5843
tp5844
Rp5845
sg504
g0
(g21
g22
(g466
g504
tp5846
tp5847
Rp5848
sg338
g0
(g21
g22
(g466
g338
tp5849
tp5850
Rp5851
sg345
g0
(g21
g22
(g466
g345
tp5852
tp5853
Rp5854
sg652
g0
(g21
g22
(g466
g652
tp5855
tp5856
Rp5857
sg359
g0
(g21
g22
(g466
g359
tp5858
tp5859
Rp5860
sg167
g0
(g21
g22
(g466
g167
tp5861
tp5862
Rp5863
sg56
g0
(g21
g22
(g466
g56
tp5864
tp5865
Rp5866
sg372
g0
(g21
g22
(g466
g372
tp5867
tp5868
Rp5869
sg379
g0
(g21
g22
(g466
g379
tp5870
tp5871
Rp5872
sg140
g0
(g21
g22
(g466
g140
tp5873
tp5874
Rp5875
sg389
g0
(g21
g22
(g466
g389
tp5876
tp5877
Rp5878
sg396
g0
(g21
g22
(g466
g396
tp5879
tp5880
Rp5881
sg403
g0
(g21
g22
(g466
g403
tp5882
tp5883
Rp5884
sg410
g0
(g21
g22
(g466
g410
tp5885
tp5886
Rp5887
sg417
g0
(g21
g22
(g466
g417
tp5888
tp5889
Rp5890
sg438
g0
(g21
g22
(g466
g438
tp5891
tp5892
Rp5893
sg714
g0
(g21
g22
(g466
g714
tp5894
tp5895
Rp5896
sg459
g0
(g21
g22
(g466
g459
tp5897
tp5898
Rp5899
sg473
g0
(g21
g22
(g466
g473
tp5900
tp5901
Rp5902
sg483
g0
(g21
g22
(g466
g483
tp5903
tp5904
Rp5905
sg331
g0
(g21
g22
(g466
g331
tp5906
tp5907
Rp5908
sg511
g0
(g21
g22
(g466
g511
tp5909
tp5910
Rp5911
sg742
g0
(g21
g22
(g466
g742
tp5912
tp5913
Rp5914
sg518
g0
(g21
g22
(g466
g518
tp5915
tp5916
Rp5917
sg539
g0
(g21
g22
(g466
g539
tp5918
tp5919
Rp5920
sg352
g0
(g21
g22
(g466
g352
tp5921
tp5922
Rp5923
sg452
g0
(g21
g22
(g466
g452
tp5924
tp5925
Rp5926
sg532
g0
(g21
g22
(g466
g532
tp5927
tp5928
Rp5929
sg1004
g0
(g21
g22
(g466
g1004
tp5930
tp5931
Rp5932
ssg0
(g4
g5
Ntp5933
Rp5934
(dp5935
g9
S'/w/index.php?title=LifesBattle&action=edit&redlink=1'
p5936
sb(dp5937
sg0
(g4
g5
Ntp5938
Rp5939
(dp5940
g9
S'/w/index.php?title=Life_%26_Death_2:_The_Brain&action=edit&redlink=1'
p5941
sb(dp5942
sg683
(dp5943
g4243
g0
(g21
g22
(g683
g4243
tp5944
tp5945
Rp5946
sg121
g0
(g21
g22
(g683
g121
tp5947
tp5948
Rp5949
sg4235
g0
(g21
g22
(g683
g4235
tp5950
tp5951
Rp5952
ssg0
(g4
g5
Ntp5953
Rp5954
(dp5955
g9
S'/w/index.php?title=Mythos_Software&action=edit&redlink=1'
p5956
sb(dp5957
sg769
(dp5958
g1004
g0
(g21
g22
(g769
g1004
tp5959
tp5960
Rp5961
sg121
g0
(g21
g22
(g769
g121
tp5962
tp5963
Rp5964
sg2790
g0
(g21
g22
(g769
g2790
tp5965
tp5966
Rp5967
sg77
g0
(g21
g22
(g769
g77
tp5968
tp5969
Rp5970
sg92
g0
(g21
g22
(g769
g92
tp5971
tp5972
Rp5973
sg233
g0
(g21
g22
(g769
g233
tp5974
tp5975
Rp5976
ssg1703
(dp5977
g1524
g0
(g21
g22
(g1703
g1524
tp5978
tp5979
Rp5980
sg77
g0
(g21
g22
(g1703
g77
tp5981
tp5982
Rp5983
ssg0
(g4
g5
Ntp5984
Rp5985
(dp5986
g9
S'/w/index.php?title=Mallard_Software&action=edit&redlink=1'
p5987
sb(dp5988
sg5318
(dp5989
sg0
(g4
g5
Ntp5990
Rp5991
(dp5992
g9
S'/w/index.php?title=Les_Manley_in:_Search_for_the_King&action=edit&redlink=1'
p5993
sb(dp5994
sg4243
(dp5995
g683
g0
(g21
g22
(g4243
g683
tp5996
tp5997
Rp5998
sg121
g0
(g21
g22
(g4243
g121
tp5999
tp6000
Rp6001
sg4235
g0
(g21
g22
(g4243
g4235
tp6002
tp6003
Rp6004
ssg0
(g4
g5
Ntp6005
Rp6006
(dp6007
g9
S'/w/index.php?title=Shadow_Development&action=edit&redlink=1'
p6008
sb(dp6009
sg497
(dp6010
sg0
(g4
g5
Ntp6011
Rp6012
(dp6013
g9
S'/wiki/Lancelot_(video_game)'
p6014
sb(dp6015
g1318
g0
(g21
g22
(g6012
g1318
tp6016
tp6017
Rp6018
sg490
g0
(g21
g22
(g6012
g490
tp6019
tp6020
Rp6021
sg56
g0
(g21
g22
(g6012
g56
tp6022
tp6023
Rp6024
ssg565
(dp6025
stp6026
Rp6027
(dp6028
S'reverse_graph'
p6029
(dp6030
g4220
(dp6031
sg3416
(dp6032
sg282
(dp6033
g275
g3464
sg410
g1403
sg296
g3672
sg270
g287
sg303
g5404
sg317
g2511
sg324
g619
sg331
g1938
sg338
g3763
sg345
g5624
sg359
g5521
sg379
g2846
sg389
g2698
sg396
g2977
sg403
g3939
sg289
g2345
sg417
g4832
sg438
g4096
sg459
g3223
sg466
g5827
sg473
g1769
sg483
g4467
sg504
g4991
sg511
g4649
sg518
g5127
sg539
g4263
ssg3624
(dp6034
sg289
(dp6035
g275
g3470
sg282
g2208
sg410
g1409
sg296
g3675
sg270
g294
sg303
g5407
sg317
g2517
sg324
g629
sg331
g1948
sg338
g3769
sg345
g5630
sg359
g5524
sg379
g2852
sg389
g2701
sg396
g2986
sg403
g3945
sg417
g4835
sg438
g4099
sg459
g3226
sg466
g5830
sg473
g1775
sg483
g4470
sg504
g4997
sg511
g4655
sg518
g5133
sg539
g4266
ssg2665
(dp6036
sg2483
(dp6037
g107
g3146
ssg1079
(dp6038
g70
g1257
sg77
g1084
ssg3921
(dp6039
sg317
(dp6040
g275
g3482
sg282
g2223
sg289
g2363
sg296
g3684
sg270
g322
sg303
g5416
sg518
g5145
sg324
g641
sg331
g1960
sg338
g3778
sg345
g5645
sg359
g5536
sg379
g2864
sg389
g2713
sg396
g3001
sg403
g3960
sg410
g1421
sg417
g4847
sg438
g4111
sg459
g3238
sg466
g5842
sg473
g1790
sg483
g4482
sg504
g5006
sg511
g4667
sg539
g4278
ssg4405
(dp6041
sg4076
(dp6042
sg324
(dp6043
g275
g3485
sg282
g2226
sg289
g2366
sg296
g3687
sg270
g329
sg303
g5419
sg317
g2539
sg331
g1963
sg338
g3781
sg345
g5648
sg359
g5539
sg379
g2867
sg389
g2716
sg396
g3004
sg403
g3963
sg410
g1424
sg417
g4850
sg438
g4114
sg459
g3241
sg466
g5845
sg473
g1793
sg483
g4485
sg504
g5009
sg511
g4670
sg518
g5148
sg539
g4281
ssg504
(dp6044
g275
g3575
sg282
g2295
sg289
g2451
sg270
g509
sg303
g5422
sg317
g2620
sg324
g737
sg296
g3690
sg338
g3850
sg345
g5726
sg359
g5542
sg379
g2930
sg389
g2770
sg396
g3085
sg403
g4038
sg410
g1532
sg417
g4940
sg438
g4183
sg459
g3295
sg466
g5848
sg473
g1887
sg483
g4488
sg331
g2057
sg511
g4745
sg518
g5244
sg539
g4362
ssg3647
(dp6045
sg84
(dp6046
g275
g3602
sg331
g2078
sg1734
g1743
sg282
g2313
sg1027
g3205
sg396
g3106
sg410
g1538
sg1573
g1579
sg270
g547
sg504
g5102
sg345
g5741
sg518
g5274
sg403
g4059
sg92
g231
sg417
g4961
sg338
g3865
sg140
g1280
sg511
g4757
sg459
g3307
sg2814
g2823
ssg389
(dp6047
g275
g3521
sg282
g2256
sg289
g2403
sg296
g3708
sg270
g394
sg303
g5440
sg317
g2572
sg324
g678
sg331
g2003
sg338
g3811
sg345
g5660
sg359
g5560
sg379
g2894
sg396
g3037
sg403
g3999
sg410
g1457
sg417
g4886
sg438
g4144
sg459
g3268
sg466
g5878
sg473
g1830
sg483
g4515
sg504
g5042
sg511
g4682
sg518
g5184
sg539
g4317
ssg39
(dp6048
sg99
(dp6049
g5368
g5380
sg128
g854
sg114
g5808
sg2483
g2504
sg107
g3155
ssg586
(dp6050
g575
g591
sg233
g897
ssg3929
(dp6051
sg2814
(dp6052
sg150
(dp6053
g155
g3194
ssg1004
(dp6054
g275
g3617
sg992
g1009
sg769
g5961
sg466
g5932
sg2790
g2802
sg518
g5172
sg504
g5114
sg417
g4979
sg345
g5672
ssg2836
(dp6055
sg1096
(dp6056
g1091
g1101
ssg44
(dp6057
g39
g49
sg282
g2280
sg18
g4642
sg5313
g5332
sg379
g2915
sg1474
g2123
sg518
g5214
sg403
g4023
sg417
g4877
sg483
g4506
sg345
g5681
sg324
g709
ssg379
(dp6058
g275
g3515
sg282
g2250
sg289
g2397
sg296
g3705
sg270
g384
sg303
g5437
sg317
g2569
sg324
g672
sg331
g1997
sg338
g3805
sg345
g5684
sg359
g5557
sg389
g2737
sg396
g3031
sg403
g3993
sg410
g1451
sg417
g4880
sg438
g4138
sg459
g3265
sg466
g5872
sg473
g1827
sg483
g4509
sg504
g5036
sg511
g4700
sg518
g5181
sg539
g4311
ssg3348
(dp6059
sg251
(dp6060
g539
g4320
sg270
g573
sg243
g256
sg518
g5187
sg396
g3040
sg490
g1326
sg403
g4002
ssg396
(dp6061
g275
g3524
sg282
g2259
sg289
g2406
sg296
g3711
sg270
g401
sg303
g5443
sg317
g2575
sg324
g681
sg331
g2006
sg338
g3814
sg345
g5690
sg359
g5563
sg379
g2897
sg389
g2743
sg403
g4005
sg410
g1460
sg417
g4889
sg438
g4147
sg459
g3271
sg466
g5881
sg473
g1833
sg483
g4518
sg504
g5045
sg511
g4709
sg518
g5190
sg539
g4323
ssg3126
(dp6062
g3131
g3439
ssg1634
(dp6063
sg162
(dp6064
sg107
(dp6065
g5368
g5377
sg128
g860
sg99
g112
sg2483
g2498
sg114
g5805
ssg4425
(dp6066
sg1249
(dp6067
g70
g1254
ssg403
(dp6068
g275
g3527
sg282
g2262
sg289
g2412
sg296
g3714
sg270
g408
sg303
g5446
sg317
g2581
sg324
g691
sg331
g2012
sg338
g3817
sg345
g5693
sg359
g5566
sg379
g2900
sg389
g2746
sg396
g3043
sg410
g1466
sg417
g4895
sg438
g4150
sg459
g3274
sg466
g5884
sg473
g1839
sg483
g4521
sg504
g5048
sg511
g4712
sg518
g5193
sg539
g4326
ssg3164
(dp6069
g3172
g5397
ssg1299
(dp6070
sg1153
(dp6071
sg3358
(dp6072
g372
g4601
sg1481
g3414
ssg258
(dp6073
g410
g1541
sg1974
g4779
sg223
g1297
sg714
g4799
sg1524
g1698
sg2112
g4438
ssg1027
(dp6074
g3197
g4412
sg558
g1032
ssg459
(dp6075
g275
g3557
sg282
g2283
sg289
g2436
sg296
g3726
sg270
g464
sg303
g5458
sg317
g2608
sg324
g722
sg331
g2039
sg338
g3832
sg345
g5714
sg359
g5581
sg379
g2918
sg389
g2758
sg396
g3067
sg403
g4026
sg410
g1510
sg417
g4922
sg438
g4168
sg466
g5899
sg473
g1869
sg483
g4539
sg504
g5069
sg511
g4733
sg518
g5220
sg539
g4347
ssg184
(dp6076
sg179
(dp6077
sg4225
(dp6078
sg3328
(dp6079
sg194
(dp6080
g202
g1237
ssg1187
(dp6081
g1195
g5339
ssg3338
(dp6082
sg927
(dp6083
g621
g932
ssg2125
(dp6084
g2112
g4441
sg2132
g3429
sg2102
g3392
sg1474
g2130
ssg3369
(dp6085
sg3882
(dp6086
sg155
(dp6087
g275
g3581
sg150
g160
sg473
g1863
sg331
g2063
sg518
g5253
sg504
g5090
ssg756
(dp6088
g417
g4949
sg317
g2626
sg324
g761
sg331
g2066
ssg749
(dp6089
g275
g3584
sg396
g3091
sg372
g4592
sg1481
g3405
sg518
g5256
sg324
g754
sg1111
g1117
sg345
g5732
sg167
g878
ssg3353
(dp6090
sg2670
(dp6091
sg575
(dp6092
g586
g2812
sg233
g910
ssg3374
(dp6093
sg3379
(dp6094
sg2102
(dp6095
g714
g4802
sg2112
g4444
sg2132
g3432
sg1474
g2107
sg2125
g2964
ssg4081
(dp6096
sg3630
(dp6097
sg3905
(dp6098
g1807
g5390
sg3900
g3910
ssg1177
(dp6099
sg2132
(dp6100
g2112
g4435
sg2102
g3395
sg2125
g2958
sg1474
g2137
ssg4452
(dp6101
sg3131
(dp6102
g3126
g3136
ssg953
(dp6103
g1618
g1624
sg960
g4416
sg263
g958
ssg992
(dp6104
sg1086
(dp6105
sg3457
(dp6106
sg263
(dp6107
g258
g268
sg410
g1507
sg960
g4419
sg714
g4805
sg953
g3455
ssg827
(dp6108
g396
g2968
sg819
g832
ssg275
(dp6109
g282
g2199
sg289
g2342
sg296
g3669
sg270
g280
sg303
g5401
sg317
g2508
sg324
g616
sg331
g1935
sg338
g3760
sg345
g5621
sg359
g5518
sg379
g2843
sg389
g2695
sg396
g2971
sg403
g3936
sg410
g1400
sg417
g4829
sg438
g4093
sg459
g3220
sg466
g5824
sg473
g1763
sg483
g4464
sg504
g4988
sg511
g4646
sg518
g5124
sg539
g4260
ssg899
(dp6110
g233
g904
ssg3619
(dp6111
sg1691
(dp6112
sg438
(dp6113
g275
g3545
sg282
g2277
sg289
g2427
sg296
g3723
sg270
g443
sg303
g5455
sg317
g2599
sg324
g706
sg331
g2027
sg338
g3829
sg345
g5708
sg359
g5575
sg379
g2912
sg389
g2755
sg396
g3055
sg403
g4020
sg410
g1492
sg417
g4907
sg459
g3283
sg466
g5893
sg473
g1857
sg483
g4536
sg504
g5060
sg511
g4727
sg518
g5208
sg539
g4338
ssg4786
(dp6114
g5789
g5795
ssg841
(dp6115
sg7
(dp6116
sg3635
(dp6117
sg518
(dp6118
g275
g3587
sg282
g2301
sg289
g2457
sg296
g3744
sg270
g523
sg303
g5476
sg317
g2536
sg324
g764
sg331
g2069
sg338
g3856
sg345
g5735
sg359
g5599
sg379
g2939
sg389
g2776
sg396
g3094
sg403
g4047
sg410
g1544
sg417
g4952
sg438
g4189
sg459
g3301
sg466
g5917
sg473
g1896
sg483
g4554
sg504
g5093
sg511
g4748
sg539
g4368
ssg5363
(dp6119
sg128
(dp6120
g114
g5814
sg2528
g5346
sg2483
g2501
sg121
g5772
sg107
g3152
sg5368
g5386
sg99
g133
ssg338
(dp6121
g275
g3494
sg282
g2232
sg289
g2372
sg270
g343
sg303
g5425
sg317
g2548
sg324
g647
sg331
g1972
sg296
g3693
sg345
g5657
sg359
g5545
sg379
g2873
sg389
g2725
sg396
g3010
sg403
g3972
sg410
g1433
sg417
g4856
sg438
g4120
sg459
g3247
sg466
g5851
sg473
g1802
sg483
g4491
sg504
g5015
sg511
g4679
sg518
g5154
sg539
g4287
ssg819
(dp6122
g834
g5118
sg827
g4820
ssg345
(dp6123
g275
g3497
sg282
g2235
sg289
g2375
sg296
g3696
sg270
g350
sg303
g5428
sg317
g2551
sg324
g650
sg331
g1982
sg338
g3790
sg389
g2728
sg359
g5548
sg379
g2876
sg396
g3013
sg403
g3975
sg410
g1436
sg417
g4859
sg438
g4123
sg459
g3250
sg466
g5854
sg473
g1805
sg483
g4494
sg504
g5018
sg511
g4706
sg518
g5157
sg539
g4290
ssg209
(dp6124
g194
g214
sg202
g1234
ssg3892
(dp6125
sg3900
(dp6126
g3905
g3914
sg1807
g5393
ssg3333
(dp6127
sg3916
(dp6128
sg4235
(dp6129
g683
g5952
sg5299
g5311
sg4243
g6004
ssg1034
(dp6130
g558
g1039
sg4574
g4583
ssg5789
(dp6131
sg880
(dp6132
sg174
(dp6133
sg683
(dp6134
g410
g1463
sg317
g2578
sg289
g2409
sg2528
g5358
sg5299
g5305
sg473
g1836
sg4235
g4241
sg4243
g5998
sg324
g688
sg417
g4892
sg331
g2009
sg121
g5784
ssg944
(dp6135
sg233
(dp6136
g275
g3542
sg282
g2274
sg1111
g1120
sg289
g2424
sg317
g2596
sg324
g703
sg92
g238
sg518
g5205
sg338
g3826
sg345
g5705
sg586
g2809
sg769
g5976
sg396
g3052
sg403
g4008
sg899
g3326
sg410
g1489
sg417
g4904
sg70
g1247
sg473
g1854
sg483
g4533
sg504
g5057
sg511
g4724
sg331
g2024
sg575
g584
sg539
g4335
ssg4215
(dp6137
sg1263
(dp6138
g140
g1268
ssg1144
(dp6139
sg1474
(dp6140
g275
g3536
sg438
g4159
sg410
g1479
sg714
g4808
sg317
g2590
sg473
g1848
sg2132
g3426
sg289
g2421
sg2125
g2961
ssg1312
(dp6141
sg598
(dp6142
sg4086
(dp6143
sg2688
(dp6144
sg970
(dp6145
sg867
(dp6146
sg445
(dp6147
g410
g1498
sg621
g935
sg317
g2602
sg289
g2433
sg270
g450
sg2102
g3401
sg473
g1860
sg324
g712
sg417
g4913
sg518
g5259
sg331
g2030
sg539
g4341
sg396
g3058
sg403
g4044
ssg5939
(dp6148
sg1381
(dp6149
sg918
(dp6150
sg4447
(dp6151
sg1126
(dp6152
sg13
(dp6153
g27
g1667
ssg1629
(dp6154
sg1331
(dp6155
g652
g1391
ssg885
(dp6156
sg1052
(dp6157
sg1215
(dp6158
g1210
g1220
ssg1106
(dp6159
sg4457
(dp6160
sg4385
(dp6161
g1163
g4622
ssg975
(dp6162
sg980
(dp6163
sg202
(dp6164
g194
g207
ssg4400
(dp6165
sg5991
(dp6166
sg6012
(dp6167
sg3197
(dp6168
g1027
g3202
ssg960
(dp6169
g953
g3452
sg263
g965
ssg532
(dp6170
g275
g3614
sg282
g2325
sg289
g2463
sg296
g3756
sg270
g537
sg303
g5488
sg317
g2653
sg324
g799
sg331
g2093
sg338
g3877
sg345
g5756
sg359
g5605
sg379
g2951
sg389
g2788
sg396
g3121
sg403
g4053
sg410
g1568
sg417
g4976
sg438
g4204
sg459
g3316
sg466
g5929
sg473
g1905
sg483
g4569
sg504
g5111
sg511
g4772
sg518
g5226
sg539
g4380
sg352
g4632
ssg1654
(dp6171
g2164
g2170
ssg1011
(dp6172
sg2112
(dp6173
g714
g4811
sg1474
g2117
ssg18
(dp6174
g410
g1562
sg270
g556
sg317
g2647
sg324
g793
sg338
g3871
sg1318
g1344
sg345
g5678
sg44
g4613
sg511
g4766
sg396
g3115
sg1057
g1063
sg417
g4970
sg135
g148
sg621
g925
sg13
g25
sg473
g1917
sg331
g2087
sg1474
g2120
sg518
g5283
sg424
g1715
sg539
g4305
sg84
g90
ssg1021
(dp6175
sg558
(dp6176
g275
g3611
sg1027
g3211
sg438
g4201
sg1263
g2335
sg410
g1565
sg270
g563
sg504
g5108
sg473
g1920
sg324
g796
sg417
g4973
sg518
g5286
sg331
g2090
sg396
g3082
sg1357
g1363
ssg862
(dp6177
sg1717
(dp6178
g424
g1722
ssg2164
(dp6179
sg1044
(dp6180
g779
g1124
ssg1222
(dp6181
g1210
g1227
ssg352
(dp6182
g275
g3500
sg282
g2316
sg289
g2381
sg296
g3750
sg270
g357
sg303
g5482
sg317
g2641
sg324
g660
sg331
g2081
sg338
g3793
sg345
g5744
sg359
g5611
sg379
g2945
sg389
g2782
sg396
g2974
sg403
g4017
sg410
g1442
sg417
g4865
sg438
g4195
sg459
g3310
sg466
g5923
sg473
g1766
sg483
g4560
sg504
g5021
sg511
g4685
sg518
g5160
sg539
g4296
ssg1057
(dp6183
sg1065
(dp6184
sg1807
(dp6185
g473
g1812
sg396
g3016
ssg5498
(dp6186
sg372
(dp6187
g275
g3512
sg282
g2247
sg289
g2415
sg270
g377
sg379
g2888
sg317
g2566
sg324
g669
sg331
g1994
sg338
g3802
sg2528
g5352
sg403
g3990
sg410
g1469
sg417
g4937
sg466
g5869
sg459
g3262
sg473
g1824
sg504
g5033
sg511
g4697
sg3358
g3367
sg518
g5178
sg539
g4308
sg121
g5778
sg558
g1042
ssg621
(dp6188
g282
g2202
sg937
g5765
sg410
g1406
sg317
g2514
sg263
g968
sg338
g3766
sg345
g5627
sg18
g4636
sg379
g2849
sg511
g4652
sg396
g2980
sg403
g3942
sg289
g2348
sg438
g4162
sg714
g4796
sg473
g1772
sg504
g4994
sg490
g1329
sg202
g1240
sg518
g5130
sg2102
g3386
sg324
g626
ssg135
(dp6189
g5313
g5329
sg483
g4530
sg345
g5702
sg324
g700
ssg1352
(dp6190
sg2187
(dp6191
sg4603
(dp6192
sg1131
(dp6193
sg1347
(dp6194
sg4585
(dp6195
sg296
(dp6196
g275
g3473
sg282
g2211
sg289
g2354
sg270
g301
sg303
g5410
sg317
g2520
sg324
g632
sg331
g1969
sg338
g3787
sg345
g5636
sg359
g5527
sg379
g2855
sg389
g2704
sg396
g2989
sg403
g3948
sg410
g1412
sg417
g4838
sg438
g4102
sg459
g3229
sg466
g5833
sg473
g1778
sg483
g4473
sg504
g5012
sg511
g4658
sg518
g5136
sg539
g4269
ssg1974
(dp6197
g331
g1979
sg1079
g3181
ssg779
(dp6198
g410
g1553
sg1044
g1050
sg1304
g1310
sg403
g3987
sg289
g2469
sg324
g784
ssg1163
(dp6199
g359
g5551
sg4385
g4394
sg1158
g1168
ssg5299
(dp6200
sg2831
(dp6201
sg189
(dp6202
sg56
(dp6203
g5368
g5374
sg275
g3509
sg4385
g4391
sg128
g848
sg282
g2244
sg804
g810
sg3164
g3170
sg289
g2394
sg1573
g1582
sg296
g3702
sg270
g370
sg303
g5434
sg3921
g3927
sg317
g2563
sg1131
g1137
sg324
g666
sg331
g1991
sg338
g3799
sg819
g825
sg2483
g2492
sg345
g5675
sg2790
g2796
sg114
g5802
sg359
g5554
sg2814
g2820
sg1079
g3184
sg1680
g1689
sg27
g1664
sg1187
g1203
sg99
g105
sg379
g2885
sg389
g2734
sg251
g3654
sg396
g3028
sg403
g3984
sg899
g3323
sg410
g1448
sg417
g4874
sg1474
g2110
sg598
g607
sg3635
g3641
sg438
g4135
sg107
g3143
sg63
g5505
sg1027
g3208
sg459
g3259
sg51
g61
sg466
g5866
sg473
g1821
sg4574
g4580
sg483
g4503
sg194
g217
sg504
g5030
sg310
g1151
sg511
g4694
sg1331
g1337
sg243
g249
sg3358
g3364
sg1717
g1753
sg518
g5175
sg3131
g3436
sg2102
g3398
sg1249
g3159
sg5313
g5326
sg586
g2806
sg3892
g3898
sg6012
g6024
sg1195
g5342
sg2164
g2173
sg1222
g2660
ssg1928
(dp6204
sg424
(dp6205
g275
g3596
sg1717
g1756
sg270
g429
sg317
g2593
sg331
g2021
sg417
g4901
ssg310
(dp6206
g282
g2220
sg396
g2998
sg270
g315
sg473
g1787
sg403
g3957
sg331
g1957
ssg769
(dp6207
g275
g3593
sg282
g2307
sg289
g2460
sg2790
g2799
sg473
g1902
sg324
g774
sg338
g3859
ssg997
(dp6208
g518
g5247
sg992
g1002
ssg4781
(dp6209
sg1139
(dp6210
sg114
(dp6211
g5368
g5383
sg128
g851
sg99
g119
sg2483
g2489
sg107
g3140
ssg1182
(dp6212
sg2149
(dp6213
sg1205
(dp6214
sg1524
(dp6215
g410
g1529
sg1703
g5980
ssg5816
(dp6216
sg1210
(dp6217
g275
g3548
sg289
g2430
sg518
g5211
sg1222
g2663
sg1215
g4252
sg417
g4910
ssg3343
(dp6218
sg714
(dp6219
g275
g3554
sg410
g1504
sg2102
g3389
sg317
g2605
sg1004
g1616
sg331
g2036
sg345
g5711
sg359
g5578
sg2125
g2955
sg396
g3064
sg997
g1172
sg417
g4919
sg2132
g3423
sg438
g4165
sg263
g951
sg466
g5896
sg473
g1866
sg504
g5066
sg511
g4730
sg1474
g2100
sg518
g5217
sg960
g4422
sg539
g4344
sg2112
g4432
sg324
g719
ssg1091
(dp6220
sg1375
(dp6221
sg70
(dp6222
g275
g3488
sg63
g5508
sg1079
g3187
sg473
g1796
sg410
g1427
sg140
g1271
sg345
g5651
sg317
g2542
sg233
g907
sg403
g3966
sg51
g75
sg331
g1966
sg1249
g3162
sg389
g2719
sg511
g4673
sg77
g1077
ssg51
(dp6223
g63
g5511
ssg270
(dp6224
g275
g3476
sg282
g2214
sg289
g2357
sg296
g3678
sg303
g5413
sg317
g2523
sg324
g635
sg331
g1951
sg338
g3772
sg345
g5639
sg359
g5530
sg379
g2858
sg389
g2707
sg396
g2992
sg403
g3951
sg410
g1415
sg417
g4841
sg438
g4105
sg459
g3232
sg466
g5836
sg473
g1781
sg483
g4476
sg504
g5000
sg511
g4661
sg518
g5139
sg539
g4272
ssg1016
(dp6225
sg140
(dp6226
g275
g3518
sg282
g2253
sg4786
g4792
sg289
g2400
sg270
g387
sg5789
g5798
sg317
g2629
sg324
g675
sg3659
g3665
sg331
g2000
sg1263
g2338
sg338
g3808
sg345
g5687
sg5490
g5496
sg135
g145
sg1680
g1686
sg1096
g4256
sg372
g4598
sg379
g2891
sg389
g2740
sg396
g3034
sg403
g3996
sg410
g1454
sg417
g4883
sg598
g604
sg1187
g1193
sg438
g4141
sg44
g4610
sg466
g5875
sg70
g1244
sg473
g1875
sg483
g4512
sg27
g1661
sg504
g5039
sg511
g4703
sg749
g2683
sg756
g987
sg518
g5262
sg1672
g1678
sg1481
g3411
sg539
g4314
sg92
g221
sg1195
g5336
sg223
g1291
ssg223
(dp6227
g275
g3566
sg282
g2328
sg518
g5232
sg410
g1519
sg431
g2185
sg270
g481
sg2528
g5355
sg473
g1878
sg324
g802
sg92
g228
sg331
g2048
sg338
g3841
sg3635
g3644
sg121
g5781
ssg4822
(dp6228
sg4574
(dp6229
sg4981
(dp6230
sg303
(dp6231
g275
g3479
sg282
g2217
sg289
g2360
sg296
g3681
sg270
g308
sg317
g2526
sg324
g638
sg331
g1954
sg338
g3775
sg345
g5642
sg359
g5533
sg379
g2861
sg389
g2710
sg396
g2995
sg403
g3954
sg410
g1418
sg417
g4844
sg438
g4108
sg459
g3235
sg466
g5839
sg473
g1784
sg483
g4479
sg504
g5003
sg511
g4664
sg518
g5142
sg539
g4275
ssg1304
(dp6232
sg834
(dp6233
g819
g839
ssg490
(dp6234
g518
g5238
sg289
g2448
sg270
g495
sg396
g3079
sg338
g3847
sg6012
g6021
sg539
g4359
ssg4230
(dp6235
sg742
(dp6236
g275
g3551
sg379
g2936
sg466
g5914
sg473
g1893
sg324
g747
sg504
g5063
sg417
g4946
ssg609
(dp6237
sg1111
(dp6238
g749
g2686
ssg525
(dp6239
g275
g3590
sg282
g2304
sg317
g2632
sg410
g1547
sg270
g530
sg504
g5096
sg473
g1899
sg359
g5602
sg324
g767
sg417
g4955
sg518
g5265
sg331
g2072
sg511
g4751
sg396
g3100
sg403
g4050
ssg5294
(dp6240
sg5934
(dp6241
sg4615
(dp6242
sg1357
(dp6243
sg1365
(dp6244
sg5313
(dp6245
sg1370
(dp6246
sg4813
(dp6247
sg5318
(dp6248
g5313
g5323
ssg1195
(dp6249
g1187
g1200
ssg2528
(dp6250
g317
g2533
sg403
g4071
sg107
g3149
ssg1724
(dp6251
sg1282
(dp6252
g2814
g2826
sg140
g1287
sg18
g4639
sg396
g3124
sg953
g3443
sg1524
g1701
ssg2159
(dp6253
sg1070
(dp6254
sg652
(dp6255
g438
g4126
sg2528
g5349
sg1331
g1340
sg289
g2378
sg1481
g3408
sg372
g4595
sg379
g2879
sg466
g5857
sg539
g4293
sg324
g657
sg410
g1439
sg417
g4862
sg345
g5663
sg121
g5775
ssg1393
(dp6256
sg410
(dp6257
g275
g3530
sg282
g2265
sg289
g2351
sg296
g3717
sg270
g415
sg303
g5449
sg317
g2584
sg324
g694
sg331
g2015
sg338
g3820
sg345
g5696
sg359
g5569
sg379
g2903
sg389
g2749
sg396
g3046
sg403
g4011
sg417
g4898
sg438
g4153
sg459
g3277
sg466
g5887
sg473
g1842
sg483
g4524
sg504
g5051
sg511
g4715
sg518
g5196
sg539
g4329
ssg1573
(dp6258
g1734
g1740
sg345
g5633
ssg431
(dp6259
g417
g4964
sg270
g436
sg1618
g1627
sg504
g5105
ssg3172
(dp6260
g3164
g3177
ssg1584
(dp6261
sg1589
(dp6262
sg5490
(dp6263
sg1599
(dp6264
sg167
(dp6265
g275
g3506
sg282
g2241
sg317
g2560
sg162
g172
sg466
g5863
sg459
g3256
sg270
g367
sg345
g5669
sg473
g1818
sg403
g3981
sg504
g5027
sg518
g5169
sg331
g1988
sg438
g4132
sg539
g4371
sg511
g4691
sg396
g3025
ssg77
(dp6266
g275
g3467
sg282
g2205
sg410
g1571
sg317
g2656
sg51
g82
sg518
g5292
sg338
g3880
sg345
g5759
sg63
g5514
sg1703
g5983
sg396
g2983
sg403
g4074
sg1524
g1711
sg438
g4207
sg1079
g3190
sg459
g3319
sg70
g1260
sg140
g1274
sg483
g4572
sg331
g2096
sg769
g5970
sg1717
g1759
sg473
g1926
sg539
g4383
ssg1618
(dp6267
g953
g3446
sg431
g2182
ssg1318
(dp6268
g396
g3097
sg490
g1323
sg6012
g6018
ssg452
(dp6269
g275
g3572
sg282
g2322
sg289
g2478
sg296
g3753
sg270
g457
sg303
g5485
sg317
g2650
sg324
g734
sg331
g2033
sg338
g3874
sg345
g5753
sg359
g5614
sg379
g2948
sg389
g2785
sg396
g3061
sg403
g4068
sg410
g1501
sg417
g4916
sg438
g4180
sg459
g3313
sg466
g5926
sg473
g1884
sg483
g4566
sg504
g5081
sg511
g4769
sg518
g5241
sg539
g4377
sg352
g4629
ssg593
(dp6270
g410
g1495
sg937
g5768
ssg1639
(dp6271
sg359
(dp6272
g275
g3503
sg282
g2238
sg289
g2384
sg296
g3699
sg270
g364
sg303
g5431
sg317
g2554
sg324
g663
sg331
g1985
sg338
g3796
sg345
g5666
sg379
g2882
sg389
g2731
sg396
g3019
sg403
g3978
sg410
g1445
sg417
g4868
sg438
g4129
sg459
g3253
sg466
g5860
sg473
g1815
sg483
g4497
sg504
g5024
sg511
g4688
sg518
g5163
sg539
g4299
ssg1644
(dp6273
sg1649
(dp6274
sg539
(dp6275
g275
g3599
sg282
g2310
sg289
g2466
sg296
g3747
sg270
g544
sg303
g5479
sg317
g2638
sg324
g777
sg331
g2075
sg338
g3862
sg345
g5738
sg359
g5608
sg379
g2942
sg389
g2779
sg396
g3103
sg403
g4056
sg410
g1550
sg417
g4958
sg438
g4192
sg459
g3304
sg466
g5920
sg473
g1908
sg483
g4557
sg504
g5099
sg511
g4754
sg518
g5271
ssg27
(dp6276
g13
g32
ssg1672
(dp6277
sg5368
(dp6278
sg2386
(dp6279
g518
g5268
sg417
g4871
sg539
g4302
sg483
g4500
sg289
g2391
ssg890
(dp6280
sg4243
(dp6281
g683
g5946
sg4235
g4248
ssg1680
(dp6282
sg804
(dp6283
g812
g874
ssg417
(dp6284
g275
g3533
sg282
g2268
sg410
g1472
sg296
g3720
sg270
g422
sg303
g5452
sg317
g2587
sg324
g697
sg331
g2018
sg338
g3823
sg345
g5699
sg359
g5572
sg379
g2906
sg389
g2752
sg396
g3049
sg403
g4014
sg289
g2418
sg438
g4156
sg459
g3280
sg466
g5890
sg473
g1845
sg483
g4527
sg504
g5054
sg511
g4718
sg518
g5199
sg539
g4332
ssg937
(dp6285
g621
g942
ssg1481
(dp6286
g275
g3539
sg282
g2271
sg473
g1851
sg410
g1486
sg379
g2909
sg317
g2635
sg518
g5202
sg511
g4721
ssg2139
(dp6287
sg1594
(dp6288
sg1729
(dp6289
sg3887
(dp6290
sg63
(dp6291
g51
g68
ssg6006
(dp6292
sg1703
(dp6293
g1524
g1708
ssg466
(dp6294
g275
g3560
sg282
g2286
sg289
g2439
sg296
g3729
sg270
g471
sg303
g5461
sg317
g2611
sg324
g725
sg331
g2042
sg338
g3835
sg345
g5717
sg359
g5584
sg379
g2921
sg389
g2761
sg396
g3070
sg403
g4029
sg410
g1513
sg417
g4925
sg438
g4171
sg459
g3286
sg473
g1872
sg483
g4542
sg504
g5072
sg511
g4736
sg518
g5223
sg539
g4350
ssg2790
(dp6295
g769
g5967
ssg243
(dp6296
g251
g3657
ssg473
(dp6297
g275
g3563
sg282
g2289
sg410
g1516
sg296
g3732
sg270
g478
sg303
g5464
sg317
g2614
sg324
g728
sg331
g2045
sg338
g3838
sg345
g5720
sg359
g5587
sg379
g2924
sg389
g2764
sg396
g3073
sg403
g4032
sg289
g2442
sg417
g4928
sg438
g4174
sg459
g3289
sg466
g5902
sg483
g4545
sg504
g5075
sg511
g4739
sg518
g5229
sg539
g4353
ssg483
(dp6298
g275
g3569
sg282
g2292
sg289
g2445
sg296
g3735
sg270
g488
sg303
g5467
sg317
g2617
sg324
g731
sg331
g2051
sg338
g3844
sg345
g5723
sg359
g5590
sg379
g2927
sg389
g2767
sg396
g3076
sg403
g4035
sg410
g1522
sg417
g4931
sg438
g4177
sg459
g3292
sg466
g5905
sg473
g1881
sg504
g5078
sg511
g4742
sg518
g5235
sg539
g4356
ssg3213
(dp6299
sg331
(dp6300
g275
g3491
sg282
g2229
sg289
g2369
sg270
g336
sg303
g5470
sg317
g2545
sg324
g644
sg296
g3738
sg338
g3784
sg345
g5654
sg359
g5593
sg379
g2870
sg389
g2722
sg396
g3007
sg403
g3969
sg410
g1430
sg417
g4853
sg438
g4117
sg459
g3244
sg466
g5908
sg473
g1799
sg483
g4548
sg504
g5084
sg511
g4676
sg518
g5151
sg539
g4284
ssg1940
(dp6301
g331
g1945
ssg5954
(dp6302
sg511
(dp6303
g275
g3578
sg282
g2298
sg410
g1535
sg296
g3741
sg270
g516
sg303
g5473
sg317
g2623
sg324
g740
sg331
g2060
sg338
g3853
sg389
g2773
sg359
g5596
sg379
g2933
sg345
g5729
sg396
g3088
sg403
g4041
sg289
g2454
sg417
g4943
sg438
g4186
sg459
g3298
sg466
g5911
sg473
g1890
sg483
g4551
sg504
g5087
sg518
g5250
sg539
g4365
ssg812
(dp6304
g317
g2557
sg396
g3022
sg804
g817
sg518
g5166
ssg1158
(dp6305
g4385
g4397
sg1163
g4625
ssg1734
(dp6306
g345
g5750
ssg5985
(dp6307
sg2144
(dp6308
sg3659
(dp6309
sg2154
(dp6310
sg2192
(dp6311
sg4209
(dp6312
sg2175
(dp6313
sg121
(dp6314
g275
g3605
sg99
g126
sg338
g3868
sg410
g1556
sg270
g550
sg518
g5277
sg1091
g1104
sg324
g787
sg749
g2680
sg128
g857
sg652
g1388
sg1734
g1746
sg511
g4760
sg396
g3109
sg683
g5949
sg233
g913
sg289
g2472
sg403
g4062
sg114
g5811
sg2483
g2495
sg473
g1911
sg223
g1294
sg92
g241
sg769
g5964
sg4243
g6001
sg539
g4374
sg953
g3449
sg5299
g5308
ssg92
(dp6315
g275
g3608
sg282
g2319
sg1263
g2332
sg289
g2475
sg270
g553
sg317
g2644
sg575
g581
sg324
g790
sg749
g2677
sg518
g5280
sg84
g97
sg345
g5747
sg1974
g4776
sg27
g1670
sg2528
g5361
sg769
g5973
sg396
g3112
sg233
g916
sg410
g1559
sg194
g200
sg403
g4065
sg438
g4198
sg140
g1277
sg483
g4563
sg417
g4967
sg331
g2084
sg997
g1175
sg511
g4763
sg202
g1231
sg756
g990
sg473
g1914
sg121
g5787
sg1734
g1749
sg1004
g1613
ssg1605
(dp6316
g1004
g1610
ssg497
(dp6317
g417
g4934
sg270
g502
sg396
g3118
sg331
g2054
ssg565
(dp6318
g359
g5617
sg2814
g2829
sg473
g1923
sg289
g2481
sg270
g570
sg518
g5289
ssg34
(dp6319
ssb.