ccopy_reg
_reconstructor
p0
(cDirectedGraph
DirectedGraph
p1
c__builtin__
dict
p2
(dp3
g0
(cGraph
Vertex
p4
c__builtin__
object
p5
Ntp6
Rp7
(dp8
S'label'
p9
S'/wiki/Index_of_Windows_games_(U)'
p10
sb(dp11
g0
(g4
g5
Ntp12
Rp13
(dp14
g9
S'/wiki/Index_of_Windows_games_(D)'
p15
sbg0
(cDirectedGraph
Arc
p16
c__builtin__
tuple
p17
(g7
g13
tp18
tp19
Rp20
sg0
(g4
g5
Ntp21
Rp22
(dp23
g9
S'/wiki/Index_of_Windows_games_(E)'
p24
sbg0
(g16
g17
(g7
g22
tp25
tp26
Rp27
sg0
(g4
g5
Ntp28
Rp29
(dp30
g9
S'/wiki/2008_in_video_gaming'
p31
sbg0
(g16
g17
(g7
g29
tp32
tp33
Rp34
sg0
(g4
g5
Ntp35
Rp36
(dp37
g9
S'/wiki/Midway_Games'
p38
sbg0
(g16
g17
(g7
g36
tp39
tp40
Rp41
sg0
(g4
g5
Ntp42
Rp43
(dp44
g9
S'/wiki/Eidos_Interactive'
p45
sbg0
(g16
g17
(g7
g43
tp46
tp47
Rp48
sg0
(g4
g5
Ntp49
Rp50
(dp51
g9
S'/wiki/1999_in_video_gaming'
p52
sbg0
(g16
g17
(g7
g50
tp53
tp54
Rp55
sg0
(g4
g5
Ntp56
Rp57
(dp58
g9
S'/wiki/Index_of_Windows_games_(B)'
p59
sbg0
(g16
g17
(g7
g57
tp60
tp61
Rp62
sg0
(g4
g5
Ntp63
Rp64
(dp65
g9
S'/wiki/Index_of_Windows_games_(V)'
p66
sbg0
(g16
g17
(g7
g64
tp67
tp68
Rp69
sg0
(g4
g5
Ntp70
Rp71
(dp72
g9
S'/wiki/2006_in_video_gaming'
p73
sbg0
(g16
g17
(g7
g71
tp74
tp75
Rp76
sg0
(g4
g5
Ntp77
Rp78
(dp79
g9
S'/wiki/Index_of_Windows_games_(I)'
p80
sbg0
(g16
g17
(g7
g78
tp81
tp82
Rp83
sg0
(g4
g5
Ntp84
Rp85
(dp86
g9
S'/wiki/Index_of_Windows_games_(L)'
p87
sbg0
(g16
g17
(g7
g85
tp88
tp89
Rp90
sg0
(g4
g5
Ntp91
Rp92
(dp93
g9
S'/wiki/Index_of_Windows_games_(C)'
p94
sbg0
(g16
g17
(g7
g92
tp95
tp96
Rp97
sg0
(g4
g5
Ntp98
Rp99
(dp100
g9
S'/wiki/Index_of_Windows_games_(P)'
p101
sbg0
(g16
g17
(g7
g99
tp102
tp103
Rp104
sg0
(g4
g5
Ntp105
Rp106
(dp107
g9
S'/wiki/2005_in_video_gaming'
p108
sbg0
(g16
g17
(g7
g106
tp109
tp110
Rp111
sg0
(g4
g5
Ntp112
Rp113
(dp114
g9
S'/wiki/Microsoft_Windows'
p115
sbg0
(g16
g17
(g7
g113
tp116
tp117
Rp118
sg0
(g4
g5
Ntp119
Rp120
(dp121
g9
S'/wiki/Index_of_Windows_games_(X)'
p122
sbg0
(g16
g17
(g7
g120
tp123
tp124
Rp125
sg0
(g4
g5
Ntp126
Rp127
(dp128
g9
S'/wiki/Index_of_Windows_games_(Q)'
p129
sbg0
(g16
g17
(g7
g127
tp130
tp131
Rp132
sg0
(g4
g5
Ntp133
Rp134
(dp135
g9
S'/wiki/Index_of_Windows_games_(Y)'
p136
sbg0
(g16
g17
(g7
g134
tp137
tp138
Rp139
sg0
(g4
g5
Ntp140
Rp141
(dp142
g9
S'/wiki/2000_in_video_gaming'
p143
sbg0
(g16
g17
(g7
g141
tp144
tp145
Rp146
sg0
(g4
g5
Ntp147
Rp148
(dp149
g9
S'/wiki/Index_of_Windows_games_(W)'
p150
sbg0
(g16
g17
(g7
g148
tp151
tp152
Rp153
sg0
(g4
g5
Ntp154
Rp155
(dp156
g9
S'/wiki/GT_Interactive'
p157
sbg0
(g16
g17
(g7
g155
tp158
tp159
Rp160
sg0
(g4
g5
Ntp161
Rp162
(dp163
g9
S'/wiki/Index_of_Windows_games_(N)'
p164
sbg0
(g16
g17
(g7
g162
tp165
tp166
Rp167
sg0
(g4
g5
Ntp168
Rp169
(dp170
g9
S'/wiki/2001_in_video_gaming'
p171
sbg0
(g16
g17
(g7
g169
tp172
tp173
Rp174
sg0
(g4
g5
Ntp175
Rp176
(dp177
g9
S'/wiki/Index_of_Windows_games_(A)'
p178
sbg0
(g16
g17
(g7
g176
tp179
tp180
Rp181
sg0
(g4
g5
Ntp182
Rp183
(dp184
g9
S'/wiki/EA_Canada'
p185
sbg0
(g16
g17
(g7
g183
tp186
tp187
Rp188
sg0
(g4
g5
Ntp189
Rp190
(dp191
g9
S'/wiki/Index_of_Windows_games_(G)'
p192
sbg0
(g16
g17
(g7
g190
tp193
tp194
Rp195
sg0
(g4
g5
Ntp196
Rp197
(dp198
g9
S'/wiki/EA_Sports'
p199
sbg0
(g16
g17
(g7
g197
tp200
tp201
Rp202
sg0
(g4
g5
Ntp203
Rp204
(dp205
g9
S'//en.wikipedia.org/w/index.php?title=Template:Index_footer&action=edit'
p206
sbg0
(g16
g17
(g7
g204
tp207
tp208
Rp209
sg0
(g4
g5
Ntp210
Rp211
(dp212
g9
S'/wiki/Index_of_Windows_games_(O)'
p213
sbg0
(g16
g17
(g7
g211
tp214
tp215
Rp216
sg0
(g4
g5
Ntp217
Rp218
(dp219
g9
S'/wiki/Index_of_Windows_games_(S)'
p220
sbg0
(g16
g17
(g7
g218
tp221
tp222
Rp223
sg0
(g4
g5
Ntp224
Rp225
(dp226
g9
S'/wiki/Template_talk:Index_footer'
p227
sbg0
(g16
g17
(g7
g225
tp228
tp229
Rp230
sg0
(g4
g5
Ntp231
Rp232
(dp233
g9
S'/wiki/Index_of_Windows_games_(Z)'
p234
sbg0
(g16
g17
(g7
g232
tp235
tp236
Rp237
sg0
(g4
g5
Ntp238
Rp239
(dp240
g9
S'/wiki/Index_of_Windows_games_(H)'
p241
sbg0
(g16
g17
(g7
g239
tp242
tp243
Rp244
sg0
(g4
g5
Ntp245
Rp246
(dp247
g9
S'/wiki/1996_in_video_gaming'
p248
sbg0
(g16
g17
(g7
g246
tp249
tp250
Rp251
sg0
(g4
g5
Ntp252
Rp253
(dp254
g9
S'/wiki/Index_of_Windows_games_(M)'
p255
sbg0
(g16
g17
(g7
g253
tp256
tp257
Rp258
sg0
(g4
g5
Ntp259
Rp260
(dp261
g9
S'/wiki/Index_of_Windows_games_(T)'
p262
sbg0
(g16
g17
(g7
g260
tp263
tp264
Rp265
sg0
(g4
g5
Ntp266
Rp267
(dp268
g9
S'/wiki/2009_in_video_gaming'
p269
sbg0
(g16
g17
(g7
g267
tp270
tp271
Rp272
sg0
(g4
g5
Ntp273
Rp274
(dp275
g9
S'/wiki/Trilobyte'
p276
sbg0
(g16
g17
(g7
g274
tp277
tp278
Rp279
sg0
(g4
g5
Ntp280
Rp281
(dp282
g9
S'/wiki/1997_in_video_gaming'
p283
sbg0
(g16
g17
(g7
g281
tp284
tp285
Rp286
sg0
(g4
g5
Ntp287
Rp288
(dp289
g9
S'/wiki/Index_of_Windows_games_(J)'
p290
sbg0
(g16
g17
(g7
g288
tp291
tp292
Rp293
sg0
(g4
g5
Ntp294
Rp295
(dp296
g9
S'/wiki/2002_in_video_gaming'
p297
sbg0
(g16
g17
(g7
g295
tp298
tp299
Rp300
sg0
(g4
g5
Ntp301
Rp302
(dp303
g9
S'/wiki/2007_in_video_gaming'
p304
sbg0
(g16
g17
(g7
g302
tp305
tp306
Rp307
sg0
(g4
g5
Ntp308
Rp309
(dp310
g9
S'/wiki/Template:Index_footer'
p311
sbg0
(g16
g17
(g7
g309
tp312
tp313
Rp314
sg0
(g4
g5
Ntp315
Rp316
(dp317
g9
S'/wiki/Index_of_Windows_games_(F)'
p318
sbg0
(g16
g17
(g7
g316
tp319
tp320
Rp321
sg0
(g4
g5
Ntp322
Rp323
(dp324
g9
S'/wiki/Index_of_Windows_games_(K)'
p325
sbg0
(g16
g17
(g7
g323
tp326
tp327
Rp328
sg0
(g4
g5
Ntp329
Rp330
(dp331
g9
S'/wiki/Index_of_Windows_games_(R)'
p332
sbg0
(g16
g17
(g7
g330
tp333
tp334
Rp335
ssg0
(g4
g5
Ntp336
Rp337
(dp338
g9
S'/wiki/80_Days'
p339
sb(dp340
g0
(g4
g5
Ntp341
Rp342
(dp343
g9
S'/wiki/Frogwares'
p344
sbg0
(g16
g17
(g337
g342
tp345
tp346
Rp347
sg113
g0
(g16
g17
(g337
g113
tp348
tp349
Rp350
ssg0
(g4
g5
Ntp351
Rp352
(dp353
g9
S'/wiki/1914_Shells_of_Fury'
p354
sb(dp355
g0
(g4
g5
Ntp356
Rp357
(dp358
g9
S'/wiki/Strategy_First'
p359
sbg0
(g16
g17
(g352
g357
tp360
tp361
Rp362
sg113
g0
(g16
g17
(g352
g113
tp363
tp364
Rp365
ssg0
(g4
g5
Ntp366
Rp367
(dp368
g9
S'/wiki/Virgin_Interactive'
p369
sb(dp370
g0
(g4
g5
Ntp371
Rp372
(dp373
g9
S'/wiki/The_7th_Guest'
p374
sbg0
(g16
g17
(g367
g372
tp375
tp376
Rp377
ssg0
(g4
g5
Ntp378
Rp379
(dp380
g9
S'/wiki/Virtual_Heroes,_Inc.'
p381
sb(dp382
g0
(g4
g5
Ntp383
Rp384
(dp385
g9
S'/wiki/3DiTeams'
p386
sbg0
(g16
g17
(g379
g384
tp387
tp388
Rp389
ssg0
(g4
g5
Ntp390
Rp391
(dp392
g9
S'/wiki/3D_Ultra_Minigolf_Adventures'
p393
sb(dp394
g0
(g4
g5
Ntp395
Rp396
(dp397
g9
S'/wiki/Wanako_Studios'
p398
sbg0
(g16
g17
(g391
g396
tp399
tp400
Rp401
sg0
(g4
g5
Ntp402
Rp403
(dp404
g9
S'/wiki/Sierra_Online'
p405
sbg0
(g16
g17
(g391
g403
tp406
tp407
Rp408
ssg29
(dp409
g246
g0
(g16
g17
(g29
g246
tp410
tp411
Rp412
sg169
g0
(g16
g17
(g29
g169
tp413
tp414
Rp415
sg281
g0
(g16
g17
(g29
g281
tp416
tp417
Rp418
sg71
g0
(g16
g17
(g29
g71
tp419
tp420
Rp421
sg36
g0
(g16
g17
(g29
g36
tp422
tp423
Rp424
sg0
(g4
g5
Ntp425
Rp426
(dp427
g9
S'/wiki/Infogrames'
p428
sbg0
(g16
g17
(g29
g426
tp429
tp430
Rp431
sg302
g0
(g16
g17
(g29
g302
tp432
tp433
Rp434
sg295
g0
(g16
g17
(g29
g295
tp435
tp436
Rp437
sg141
g0
(g16
g17
(g29
g141
tp438
tp439
Rp440
sg0
(g4
g5
Ntp441
Rp442
(dp443
g9
S'/wiki/1995_in_video_gaming'
p444
sbg0
(g16
g17
(g29
g442
tp445
tp446
Rp447
sg50
g0
(g16
g17
(g29
g50
tp448
tp449
Rp450
sg106
g0
(g16
g17
(g29
g106
tp451
tp452
Rp453
sg113
g0
(g16
g17
(g29
g113
tp454
tp455
Rp456
sg267
g0
(g16
g17
(g29
g267
tp457
tp458
Rp459
ssg0
(g4
g5
Ntp460
Rp461
(dp462
g9
S'/wiki/25_To_Life'
p463
sb(dp464
g113
g0
(g16
g17
(g461
g113
tp465
tp466
Rp467
sg0
(g4
g5
Ntp468
Rp469
(dp470
g9
S'/wiki/Avalanche_Software'
p471
sbg0
(g16
g17
(g461
g469
tp472
tp473
Rp474
sg43
g0
(g16
g17
(g461
g43
tp475
tp476
Rp477
ssg0
(g4
g5
Ntp478
Rp479
(dp480
g9
S'/wiki/Digital_Jesters'
p481
sb(dp482
sg0
(g4
g5
Ntp483
Rp484
(dp485
g9
S'/w/index.php?title=H2f_Informationssysteme&action=edit&redlink=1'
p486
sb(dp487
sg0
(g4
g5
Ntp488
Rp489
(dp490
g9
S'/wiki/12Riven'
p491
sb(dp492
g0
(g4
g5
Ntp493
Rp494
(dp495
g9
S'/wiki/KID'
p496
sbg0
(g16
g17
(g489
g494
tp497
tp498
Rp499
sg113
g0
(g16
g17
(g489
g113
tp500
tp501
Rp502
ssg57
(dp503
g13
g0
(g16
g17
(g57
g13
tp504
tp505
Rp506
sg7
g0
(g16
g17
(g57
g7
tp507
tp508
Rp509
sg0
(g4
g5
Ntp510
Rp511
(dp512
g9
S'/wiki/Terminal_Reality'
p513
sbg0
(g16
g17
(g57
g511
tp514
tp515
Rp516
sg22
g0
(g16
g17
(g57
g22
tp517
tp518
Rp519
sg442
g0
(g16
g17
(g57
g442
tp520
tp521
Rp522
sg29
g0
(g16
g17
(g57
g29
tp523
tp524
Rp525
sg479
g0
(g16
g17
(g57
g479
tp526
tp527
Rp528
sg0
(g4
g5
Ntp529
Rp530
(dp531
g9
S'/wiki/Gathering_of_Developers'
p532
sbg0
(g16
g17
(g57
g530
tp533
tp534
Rp535
sg43
g0
(g16
g17
(g57
g43
tp536
tp537
Rp538
sg246
g0
(g16
g17
(g57
g246
tp539
tp540
Rp541
sg50
g0
(g16
g17
(g57
g50
tp542
tp543
Rp544
sg64
g0
(g16
g17
(g57
g64
tp545
tp546
Rp547
sg71
g0
(g16
g17
(g57
g71
tp548
tp549
Rp550
sg36
g0
(g16
g17
(g57
g36
tp551
tp552
Rp553
sg78
g0
(g16
g17
(g57
g78
tp554
tp555
Rp556
sg85
g0
(g16
g17
(g57
g85
tp557
tp558
Rp559
sg92
g0
(g16
g17
(g57
g92
tp560
tp561
Rp562
sg99
g0
(g16
g17
(g57
g99
tp563
tp564
Rp565
sg106
g0
(g16
g17
(g57
g106
tp566
tp567
Rp568
sg113
g0
(g16
g17
(g57
g113
tp569
tp570
Rp571
sg120
g0
(g16
g17
(g57
g120
tp572
tp573
Rp574
sg127
g0
(g16
g17
(g57
g127
tp575
tp576
Rp577
sg134
g0
(g16
g17
(g57
g134
tp578
tp579
Rp580
sg141
g0
(g16
g17
(g57
g141
tp581
tp582
Rp583
sg148
g0
(g16
g17
(g57
g148
tp584
tp585
Rp586
sg155
g0
(g16
g17
(g57
g155
tp587
tp588
Rp589
sg162
g0
(g16
g17
(g57
g162
tp590
tp591
Rp592
sg169
g0
(g16
g17
(g57
g169
tp593
tp594
Rp595
sg176
g0
(g16
g17
(g57
g176
tp596
tp597
Rp598
sg190
g0
(g16
g17
(g57
g190
tp599
tp600
Rp601
sg0
(g4
g5
Ntp602
Rp603
(dp604
g9
S'/wiki/Crystal_Dynamics'
p605
sbg0
(g16
g17
(g57
g603
tp606
tp607
Rp608
sg204
g0
(g16
g17
(g57
g204
tp609
tp610
Rp611
sg211
g0
(g16
g17
(g57
g211
tp612
tp613
Rp614
sg218
g0
(g16
g17
(g57
g218
tp615
tp616
Rp617
sg403
g0
(g16
g17
(g57
g403
tp618
tp619
Rp620
sg232
g0
(g16
g17
(g57
g232
tp621
tp622
Rp623
sg239
g0
(g16
g17
(g57
g239
tp624
tp625
Rp626
sg469
g0
(g16
g17
(g57
g469
tp627
tp628
Rp629
sg253
g0
(g16
g17
(g57
g253
tp630
tp631
Rp632
sg260
g0
(g16
g17
(g57
g260
tp633
tp634
Rp635
sg267
g0
(g16
g17
(g57
g267
tp636
tp637
Rp638
sg295
g0
(g16
g17
(g57
g295
tp639
tp640
Rp641
sg281
g0
(g16
g17
(g57
g281
tp642
tp643
Rp644
sg288
g0
(g16
g17
(g57
g288
tp645
tp646
Rp647
sg302
g0
(g16
g17
(g57
g302
tp648
tp649
Rp650
sg0
(g4
g5
Ntp651
Rp652
(dp653
g9
S'/wiki/Disney_Interactive'
p654
sbg0
(g16
g17
(g57
g652
tp655
tp656
Rp657
sg309
g0
(g16
g17
(g57
g309
tp658
tp659
Rp660
sg426
g0
(g16
g17
(g57
g426
tp661
tp662
Rp663
sg225
g0
(g16
g17
(g57
g225
tp664
tp665
Rp666
sg316
g0
(g16
g17
(g57
g316
tp667
tp668
Rp669
sg323
g0
(g16
g17
(g57
g323
tp670
tp671
Rp672
sg330
g0
(g16
g17
(g57
g330
tp673
tp674
Rp675
ssg106
(dp676
g246
g0
(g16
g17
(g106
g246
tp677
tp678
Rp679
sg169
g0
(g16
g17
(g106
g169
tp680
tp681
Rp682
sg71
g0
(g16
g17
(g106
g71
tp683
tp684
Rp685
sg442
g0
(g16
g17
(g106
g442
tp686
tp687
Rp688
sg29
g0
(g16
g17
(g106
g29
tp689
tp690
Rp691
sg197
g0
(g16
g17
(g106
g197
tp692
tp693
Rp694
sg295
g0
(g16
g17
(g106
g295
tp695
tp696
Rp697
sg141
g0
(g16
g17
(g106
g141
tp698
tp699
Rp700
sg281
g0
(g16
g17
(g106
g281
tp701
tp702
Rp703
sg43
g0
(g16
g17
(g106
g43
tp704
tp705
Rp706
sg50
g0
(g16
g17
(g106
g50
tp707
tp708
Rp709
sg302
g0
(g16
g17
(g106
g302
tp710
tp711
Rp712
sg113
g0
(g16
g17
(g106
g113
tp713
tp714
Rp715
sg267
g0
(g16
g17
(g106
g267
tp716
tp717
Rp718
ssg0
(g4
g5
Ntp719
Rp720
(dp721
g9
S'/w/index.php?title=Steel_Monkeys&action=edit&redlink=1'
p722
sb(dp723
sg0
(g4
g5
Ntp724
Rp725
(dp726
g9
S'/w/index.php?title=Cyberfront&action=edit&redlink=1'
p727
sb(dp728
sg0
(g4
g5
Ntp729
Rp730
(dp731
g9
S'/wiki/Ram_(company)'
p732
sb(dp733
g0
(g4
g5
Ntp734
Rp735
(dp736
g9
S'/wiki/Visual_Art%27s'
p737
sbg0
(g16
g17
(g730
g735
tp738
tp739
Rp740
sg0
(g4
g5
Ntp741
Rp742
(dp743
g9
S'/wiki/5_(visual_novel)'
p744
sbg0
(g16
g17
(g730
g742
tp745
tp746
Rp747
ssg384
(dp748
g379
g0
(g16
g17
(g384
g379
tp749
tp750
Rp751
sg113
g0
(g16
g17
(g384
g113
tp752
tp753
Rp754
ssg0
(g4
g5
Ntp755
Rp756
(dp757
g9
S'/wiki/9:_The_Last_Resort'
p758
sb(dp759
g0
(g4
g5
Ntp760
Rp761
(dp762
g9
S'/wiki/Tribeca_Interactive'
p763
sbg0
(g16
g17
(g756
g761
tp764
tp765
Rp766
sg113
g0
(g16
g17
(g756
g113
tp767
tp768
Rp769
sg155
g0
(g16
g17
(g756
g155
tp770
tp771
Rp772
ssg190
(dp773
g13
g0
(g16
g17
(g190
g13
tp774
tp775
Rp776
sg442
g0
(g16
g17
(g190
g442
tp777
tp778
Rp779
sg7
g0
(g16
g17
(g190
g7
tp780
tp781
Rp782
sg511
g0
(g16
g17
(g190
g511
tp783
tp784
Rp785
sg22
g0
(g16
g17
(g190
g22
tp786
tp787
Rp788
sg357
g0
(g16
g17
(g190
g357
tp789
tp790
Rp791
sg29
g0
(g16
g17
(g190
g29
tp792
tp793
Rp794
sg36
g0
(g16
g17
(g190
g36
tp795
tp796
Rp797
sg530
g0
(g16
g17
(g190
g530
tp798
tp799
Rp800
sg367
g0
(g16
g17
(g190
g367
tp801
tp802
Rp803
sg50
g0
(g16
g17
(g190
g50
tp804
tp805
Rp806
sg57
g0
(g16
g17
(g190
g57
tp807
tp808
Rp809
sg64
g0
(g16
g17
(g190
g64
tp810
tp811
Rp812
sg71
g0
(g16
g17
(g190
g71
tp813
tp814
Rp815
sg78
g0
(g16
g17
(g190
g78
tp816
tp817
Rp818
sg85
g0
(g16
g17
(g190
g85
tp819
tp820
Rp821
sg92
g0
(g16
g17
(g190
g92
tp822
tp823
Rp824
sg99
g0
(g16
g17
(g190
g99
tp825
tp826
Rp827
sg106
g0
(g16
g17
(g190
g106
tp828
tp829
Rp830
sg113
g0
(g16
g17
(g190
g113
tp831
tp832
Rp833
sg120
g0
(g16
g17
(g190
g120
tp834
tp835
Rp836
sg127
g0
(g16
g17
(g190
g127
tp837
tp838
Rp839
sg134
g0
(g16
g17
(g190
g134
tp840
tp841
Rp842
sg141
g0
(g16
g17
(g190
g141
tp843
tp844
Rp845
sg148
g0
(g16
g17
(g190
g148
tp846
tp847
Rp848
sg162
g0
(g16
g17
(g190
g162
tp849
tp850
Rp851
sg169
g0
(g16
g17
(g190
g169
tp852
tp853
Rp854
sg176
g0
(g16
g17
(g190
g176
tp855
tp856
Rp857
sg603
g0
(g16
g17
(g190
g603
tp858
tp859
Rp860
sg204
g0
(g16
g17
(g190
g204
tp861
tp862
Rp863
sg211
g0
(g16
g17
(g190
g211
tp864
tp865
Rp866
sg218
g0
(g16
g17
(g190
g218
tp867
tp868
Rp869
sg225
g0
(g16
g17
(g190
g225
tp870
tp871
Rp872
sg232
g0
(g16
g17
(g190
g232
tp873
tp874
Rp875
sg239
g0
(g16
g17
(g190
g239
tp876
tp877
Rp878
sg246
g0
(g16
g17
(g190
g246
tp879
tp880
Rp881
sg253
g0
(g16
g17
(g190
g253
tp882
tp883
Rp884
sg260
g0
(g16
g17
(g190
g260
tp885
tp886
Rp887
sg267
g0
(g16
g17
(g190
g267
tp888
tp889
Rp890
sg295
g0
(g16
g17
(g190
g295
tp891
tp892
Rp893
sg281
g0
(g16
g17
(g190
g281
tp894
tp895
Rp896
sg288
g0
(g16
g17
(g190
g288
tp897
tp898
Rp899
sg302
g0
(g16
g17
(g190
g302
tp900
tp901
Rp902
sg309
g0
(g16
g17
(g190
g309
tp903
tp904
Rp905
sg426
g0
(g16
g17
(g190
g426
tp906
tp907
Rp908
sg316
g0
(g16
g17
(g190
g316
tp909
tp910
Rp911
sg323
g0
(g16
g17
(g190
g323
tp912
tp913
Rp914
sg330
g0
(g16
g17
(g190
g330
tp915
tp916
Rp917
ssg99
(dp918
g13
g0
(g16
g17
(g99
g13
tp919
tp920
Rp921
sg7
g0
(g16
g17
(g99
g7
tp922
tp923
Rp924
sg22
g0
(g16
g17
(g99
g22
tp925
tp926
Rp927
sg442
g0
(g16
g17
(g99
g442
tp928
tp929
Rp930
sg36
g0
(g16
g17
(g99
g36
tp931
tp932
Rp933
sg43
g0
(g16
g17
(g99
g43
tp934
tp935
Rp936
sg246
g0
(g16
g17
(g99
g246
tp937
tp938
Rp939
sg57
g0
(g16
g17
(g99
g57
tp940
tp941
Rp942
sg64
g0
(g16
g17
(g99
g64
tp943
tp944
Rp945
sg71
g0
(g16
g17
(g99
g71
tp946
tp947
Rp948
sg78
g0
(g16
g17
(g99
g78
tp949
tp950
Rp951
sg85
g0
(g16
g17
(g99
g85
tp952
tp953
Rp954
sg92
g0
(g16
g17
(g99
g92
tp955
tp956
Rp957
sg29
g0
(g16
g17
(g99
g29
tp958
tp959
Rp960
sg357
g0
(g16
g17
(g99
g357
tp961
tp962
Rp963
sg106
g0
(g16
g17
(g99
g106
tp964
tp965
Rp966
sg113
g0
(g16
g17
(g99
g113
tp967
tp968
Rp969
sg120
g0
(g16
g17
(g99
g120
tp970
tp971
Rp972
sg127
g0
(g16
g17
(g99
g127
tp973
tp974
Rp975
sg134
g0
(g16
g17
(g99
g134
tp976
tp977
Rp978
sg141
g0
(g16
g17
(g99
g141
tp979
tp980
Rp981
sg148
g0
(g16
g17
(g99
g148
tp982
tp983
Rp984
sg162
g0
(g16
g17
(g99
g162
tp985
tp986
Rp987
sg169
g0
(g16
g17
(g99
g169
tp988
tp989
Rp990
sg176
g0
(g16
g17
(g99
g176
tp991
tp992
Rp993
sg190
g0
(g16
g17
(g99
g190
tp994
tp995
Rp996
sg603
g0
(g16
g17
(g99
g603
tp997
tp998
Rp999
sg204
g0
(g16
g17
(g99
g204
tp1000
tp1001
Rp1002
sg211
g0
(g16
g17
(g99
g211
tp1003
tp1004
Rp1005
sg218
g0
(g16
g17
(g99
g218
tp1006
tp1007
Rp1008
sg225
g0
(g16
g17
(g99
g225
tp1009
tp1010
Rp1011
sg232
g0
(g16
g17
(g99
g232
tp1012
tp1013
Rp1014
sg50
g0
(g16
g17
(g99
g50
tp1015
tp1016
Rp1017
sg239
g0
(g16
g17
(g99
g239
tp1018
tp1019
Rp1020
sg253
g0
(g16
g17
(g99
g253
tp1021
tp1022
Rp1023
sg260
g0
(g16
g17
(g99
g260
tp1024
tp1025
Rp1026
sg267
g0
(g16
g17
(g99
g267
tp1027
tp1028
Rp1029
sg295
g0
(g16
g17
(g99
g295
tp1030
tp1031
Rp1032
sg281
g0
(g16
g17
(g99
g281
tp1033
tp1034
Rp1035
sg288
g0
(g16
g17
(g99
g288
tp1036
tp1037
Rp1038
sg302
g0
(g16
g17
(g99
g302
tp1039
tp1040
Rp1041
sg309
g0
(g16
g17
(g99
g309
tp1042
tp1043
Rp1044
sg426
g0
(g16
g17
(g99
g426
tp1045
tp1046
Rp1047
sg316
g0
(g16
g17
(g99
g316
tp1048
tp1049
Rp1050
sg323
g0
(g16
g17
(g99
g323
tp1051
tp1052
Rp1053
sg330
g0
(g16
g17
(g99
g330
tp1054
tp1055
Rp1056
ssg0
(g4
g5
Ntp1057
Rp1058
(dp1059
g9
S'/wiki/The_11th_Hour_(video_game)'
p1060
sb(dp1061
g274
g0
(g16
g17
(g1058
g274
tp1062
tp1063
Rp1064
sg367
g0
(g16
g17
(g1058
g367
tp1065
tp1066
Rp1067
sg113
g0
(g16
g17
(g1058
g113
tp1068
tp1069
Rp1070
sg372
g0
(g16
g17
(g1058
g372
tp1071
tp1072
Rp1073
ssg652
(dp1074
g469
g0
(g16
g17
(g652
g469
tp1075
tp1076
Rp1077
ssg22
(dp1078
g13
g0
(g16
g17
(g22
g13
tp1079
tp1080
Rp1081
sg7
g0
(g16
g17
(g22
g7
tp1082
tp1083
Rp1084
sg442
g0
(g16
g17
(g22
g442
tp1085
tp1086
Rp1087
sg29
g0
(g16
g17
(g22
g29
tp1088
tp1089
Rp1090
sg36
g0
(g16
g17
(g22
g36
tp1091
tp1092
Rp1093
sg50
g0
(g16
g17
(g22
g50
tp1094
tp1095
Rp1096
sg57
g0
(g16
g17
(g22
g57
tp1097
tp1098
Rp1099
sg64
g0
(g16
g17
(g22
g64
tp1100
tp1101
Rp1102
sg71
g0
(g16
g17
(g22
g71
tp1103
tp1104
Rp1105
sg78
g0
(g16
g17
(g22
g78
tp1106
tp1107
Rp1108
sg85
g0
(g16
g17
(g22
g85
tp1109
tp1110
Rp1111
sg92
g0
(g16
g17
(g22
g92
tp1112
tp1113
Rp1114
sg99
g0
(g16
g17
(g22
g99
tp1115
tp1116
Rp1117
sg357
g0
(g16
g17
(g22
g357
tp1118
tp1119
Rp1120
sg106
g0
(g16
g17
(g22
g106
tp1121
tp1122
Rp1123
sg113
g0
(g16
g17
(g22
g113
tp1124
tp1125
Rp1126
sg120
g0
(g16
g17
(g22
g120
tp1127
tp1128
Rp1129
sg127
g0
(g16
g17
(g22
g127
tp1130
tp1131
Rp1132
sg134
g0
(g16
g17
(g22
g134
tp1133
tp1134
Rp1135
sg141
g0
(g16
g17
(g22
g141
tp1136
tp1137
Rp1138
sg148
g0
(g16
g17
(g22
g148
tp1139
tp1140
Rp1141
sg162
g0
(g16
g17
(g22
g162
tp1142
tp1143
Rp1144
sg169
g0
(g16
g17
(g22
g169
tp1145
tp1146
Rp1147
sg176
g0
(g16
g17
(g22
g176
tp1148
tp1149
Rp1150
sg190
g0
(g16
g17
(g22
g190
tp1151
tp1152
Rp1153
sg197
g0
(g16
g17
(g22
g197
tp1154
tp1155
Rp1156
sg204
g0
(g16
g17
(g22
g204
tp1157
tp1158
Rp1159
sg211
g0
(g16
g17
(g22
g211
tp1160
tp1161
Rp1162
sg218
g0
(g16
g17
(g22
g218
tp1163
tp1164
Rp1165
sg225
g0
(g16
g17
(g22
g225
tp1166
tp1167
Rp1168
sg232
g0
(g16
g17
(g22
g232
tp1169
tp1170
Rp1171
sg239
g0
(g16
g17
(g22
g239
tp1172
tp1173
Rp1174
sg246
g0
(g16
g17
(g22
g246
tp1175
tp1176
Rp1177
sg253
g0
(g16
g17
(g22
g253
tp1178
tp1179
Rp1180
sg494
g0
(g16
g17
(g22
g494
tp1181
tp1182
Rp1183
sg260
g0
(g16
g17
(g22
g260
tp1184
tp1185
Rp1186
sg267
g0
(g16
g17
(g22
g267
tp1187
tp1188
Rp1189
sg295
g0
(g16
g17
(g22
g295
tp1190
tp1191
Rp1192
sg281
g0
(g16
g17
(g22
g281
tp1193
tp1194
Rp1195
sg288
g0
(g16
g17
(g22
g288
tp1196
tp1197
Rp1198
sg302
g0
(g16
g17
(g22
g302
tp1199
tp1200
Rp1201
sg309
g0
(g16
g17
(g22
g309
tp1202
tp1203
Rp1204
sg426
g0
(g16
g17
(g22
g426
tp1205
tp1206
Rp1207
sg316
g0
(g16
g17
(g22
g316
tp1208
tp1209
Rp1210
sg323
g0
(g16
g17
(g22
g323
tp1211
tp1212
Rp1213
sg330
g0
(g16
g17
(g22
g330
tp1214
tp1215
Rp1216
ssg127
(dp1217
g13
g0
(g16
g17
(g127
g13
tp1218
tp1219
Rp1220
sg7
g0
(g16
g17
(g127
g7
tp1221
tp1222
Rp1223
sg22
g0
(g16
g17
(g127
g22
tp1224
tp1225
Rp1226
sg442
g0
(g16
g17
(g127
g442
tp1227
tp1228
Rp1229
sg29
g0
(g16
g17
(g127
g29
tp1230
tp1231
Rp1232
sg246
g0
(g16
g17
(g127
g246
tp1233
tp1234
Rp1235
sg57
g0
(g16
g17
(g127
g57
tp1236
tp1237
Rp1238
sg64
g0
(g16
g17
(g127
g64
tp1239
tp1240
Rp1241
sg78
g0
(g16
g17
(g127
g78
tp1242
tp1243
Rp1244
sg85
g0
(g16
g17
(g127
g85
tp1245
tp1246
Rp1247
sg92
g0
(g16
g17
(g127
g92
tp1248
tp1249
Rp1250
sg99
g0
(g16
g17
(g127
g99
tp1251
tp1252
Rp1253
sg106
g0
(g16
g17
(g127
g106
tp1254
tp1255
Rp1256
sg113
g0
(g16
g17
(g127
g113
tp1257
tp1258
Rp1259
sg120
g0
(g16
g17
(g127
g120
tp1260
tp1261
Rp1262
sg134
g0
(g16
g17
(g127
g134
tp1263
tp1264
Rp1265
sg148
g0
(g16
g17
(g127
g148
tp1266
tp1267
Rp1268
sg155
g0
(g16
g17
(g127
g155
tp1269
tp1270
Rp1271
sg162
g0
(g16
g17
(g127
g162
tp1272
tp1273
Rp1274
sg176
g0
(g16
g17
(g127
g176
tp1275
tp1276
Rp1277
sg190
g0
(g16
g17
(g127
g190
tp1278
tp1279
Rp1280
sg211
g0
(g16
g17
(g127
g211
tp1281
tp1282
Rp1283
sg218
g0
(g16
g17
(g127
g218
tp1284
tp1285
Rp1286
sg225
g0
(g16
g17
(g127
g225
tp1287
tp1288
Rp1289
sg232
g0
(g16
g17
(g127
g232
tp1290
tp1291
Rp1292
sg50
g0
(g16
g17
(g127
g50
tp1293
tp1294
Rp1295
sg239
g0
(g16
g17
(g127
g239
tp1296
tp1297
Rp1298
sg253
g0
(g16
g17
(g127
g253
tp1299
tp1300
Rp1301
sg260
g0
(g16
g17
(g127
g260
tp1302
tp1303
Rp1304
sg281
g0
(g16
g17
(g127
g281
tp1305
tp1306
Rp1307
sg288
g0
(g16
g17
(g127
g288
tp1308
tp1309
Rp1310
sg204
g0
(g16
g17
(g127
g204
tp1311
tp1312
Rp1313
sg309
g0
(g16
g17
(g127
g309
tp1314
tp1315
Rp1316
sg316
g0
(g16
g17
(g127
g316
tp1317
tp1318
Rp1319
sg323
g0
(g16
g17
(g127
g323
tp1320
tp1321
Rp1322
sg330
g0
(g16
g17
(g127
g330
tp1323
tp1324
Rp1325
ssg162
(dp1326
g13
g0
(g16
g17
(g162
g13
tp1327
tp1328
Rp1329
sg442
g0
(g16
g17
(g162
g442
tp1330
tp1331
Rp1332
sg7
g0
(g16
g17
(g162
g7
tp1333
tp1334
Rp1335
sg511
g0
(g16
g17
(g162
g511
tp1336
tp1337
Rp1338
sg22
g0
(g16
g17
(g162
g22
tp1339
tp1340
Rp1341
sg357
g0
(g16
g17
(g162
g357
tp1342
tp1343
Rp1344
sg29
g0
(g16
g17
(g162
g29
tp1345
tp1346
Rp1347
sg36
g0
(g16
g17
(g162
g36
tp1348
tp1349
Rp1350
sg530
g0
(g16
g17
(g162
g530
tp1351
tp1352
Rp1353
sg155
g0
(g16
g17
(g162
g155
tp1354
tp1355
Rp1356
sg57
g0
(g16
g17
(g162
g57
tp1357
tp1358
Rp1359
sg64
g0
(g16
g17
(g162
g64
tp1360
tp1361
Rp1362
sg0
(g4
g5
Ntp1363
Rp1364
(dp1365
g9
S'/wiki/MumboJumbo'
p1366
sbg0
(g16
g17
(g162
g1364
tp1367
tp1368
Rp1369
sg78
g0
(g16
g17
(g162
g78
tp1370
tp1371
Rp1372
sg85
g0
(g16
g17
(g162
g85
tp1373
tp1374
Rp1375
sg92
g0
(g16
g17
(g162
g92
tp1376
tp1377
Rp1378
sg99
g0
(g16
g17
(g162
g99
tp1379
tp1380
Rp1381
sg106
g0
(g16
g17
(g162
g106
tp1382
tp1383
Rp1384
sg113
g0
(g16
g17
(g162
g113
tp1385
tp1386
Rp1387
sg120
g0
(g16
g17
(g162
g120
tp1388
tp1389
Rp1390
sg127
g0
(g16
g17
(g162
g127
tp1391
tp1392
Rp1393
sg134
g0
(g16
g17
(g162
g134
tp1394
tp1395
Rp1396
sg141
g0
(g16
g17
(g162
g141
tp1397
tp1398
Rp1399
sg148
g0
(g16
g17
(g162
g148
tp1400
tp1401
Rp1402
sg71
g0
(g16
g17
(g162
g71
tp1403
tp1404
Rp1405
sg169
g0
(g16
g17
(g162
g169
tp1406
tp1407
Rp1408
sg176
g0
(g16
g17
(g162
g176
tp1409
tp1410
Rp1411
sg183
g0
(g16
g17
(g162
g183
tp1412
tp1413
Rp1414
sg190
g0
(g16
g17
(g162
g190
tp1415
tp1416
Rp1417
sg197
g0
(g16
g17
(g162
g197
tp1418
tp1419
Rp1420
sg204
g0
(g16
g17
(g162
g204
tp1421
tp1422
Rp1423
sg211
g0
(g16
g17
(g162
g211
tp1424
tp1425
Rp1426
sg218
g0
(g16
g17
(g162
g218
tp1427
tp1428
Rp1429
sg225
g0
(g16
g17
(g162
g225
tp1430
tp1431
Rp1432
sg232
g0
(g16
g17
(g162
g232
tp1433
tp1434
Rp1435
sg50
g0
(g16
g17
(g162
g50
tp1436
tp1437
Rp1438
sg239
g0
(g16
g17
(g162
g239
tp1439
tp1440
Rp1441
sg246
g0
(g16
g17
(g162
g246
tp1442
tp1443
Rp1444
sg253
g0
(g16
g17
(g162
g253
tp1445
tp1446
Rp1447
sg260
g0
(g16
g17
(g162
g260
tp1448
tp1449
Rp1450
sg267
g0
(g16
g17
(g162
g267
tp1451
tp1452
Rp1453
sg295
g0
(g16
g17
(g162
g295
tp1454
tp1455
Rp1456
sg281
g0
(g16
g17
(g162
g281
tp1457
tp1458
Rp1459
sg288
g0
(g16
g17
(g162
g288
tp1460
tp1461
Rp1462
sg302
g0
(g16
g17
(g162
g302
tp1463
tp1464
Rp1465
sg309
g0
(g16
g17
(g162
g309
tp1466
tp1467
Rp1468
sg426
g0
(g16
g17
(g162
g426
tp1469
tp1470
Rp1471
sg316
g0
(g16
g17
(g162
g316
tp1472
tp1473
Rp1474
sg323
g0
(g16
g17
(g162
g323
tp1475
tp1476
Rp1477
sg330
g0
(g16
g17
(g162
g330
tp1478
tp1479
Rp1480
ssg530
(dp1481
g511
g0
(g16
g17
(g530
g511
tp1482
tp1483
Rp1484
sg43
g0
(g16
g17
(g530
g43
tp1485
tp1486
Rp1487
ssg742
(dp1488
g730
g0
(g16
g17
(g742
g730
tp1489
tp1490
Rp1491
sg113
g0
(g16
g17
(g742
g113
tp1492
tp1493
Rp1494
sg735
g0
(g16
g17
(g742
g735
tp1495
tp1496
Rp1497
ssg13
(dp1498
g7
g0
(g16
g17
(g13
g7
tp1499
tp1500
Rp1501
sg22
g0
(g16
g17
(g13
g22
tp1502
tp1503
Rp1504
sg442
g0
(g16
g17
(g13
g442
tp1505
tp1506
Rp1507
sg29
g0
(g16
g17
(g13
g29
tp1508
tp1509
Rp1510
sg36
g0
(g16
g17
(g13
g36
tp1511
tp1512
Rp1513
sg530
g0
(g16
g17
(g13
g530
tp1514
tp1515
Rp1516
sg367
g0
(g16
g17
(g13
g367
tp1517
tp1518
Rp1519
sg246
g0
(g16
g17
(g13
g246
tp1520
tp1521
Rp1522
sg57
g0
(g16
g17
(g13
g57
tp1523
tp1524
Rp1525
sg64
g0
(g16
g17
(g13
g64
tp1526
tp1527
Rp1528
sg71
g0
(g16
g17
(g13
g71
tp1529
tp1530
Rp1531
sg78
g0
(g16
g17
(g13
g78
tp1532
tp1533
Rp1534
sg85
g0
(g16
g17
(g13
g85
tp1535
tp1536
Rp1537
sg92
g0
(g16
g17
(g13
g92
tp1538
tp1539
Rp1540
sg99
g0
(g16
g17
(g13
g99
tp1541
tp1542
Rp1543
sg357
g0
(g16
g17
(g13
g357
tp1544
tp1545
Rp1546
sg106
g0
(g16
g17
(g13
g106
tp1547
tp1548
Rp1549
sg113
g0
(g16
g17
(g13
g113
tp1550
tp1551
Rp1552
sg120
g0
(g16
g17
(g13
g120
tp1553
tp1554
Rp1555
sg127
g0
(g16
g17
(g13
g127
tp1556
tp1557
Rp1558
sg134
g0
(g16
g17
(g13
g134
tp1559
tp1560
Rp1561
sg141
g0
(g16
g17
(g13
g141
tp1562
tp1563
Rp1564
sg148
g0
(g16
g17
(g13
g148
tp1565
tp1566
Rp1567
sg155
g0
(g16
g17
(g13
g155
tp1568
tp1569
Rp1570
sg162
g0
(g16
g17
(g13
g162
tp1571
tp1572
Rp1573
sg169
g0
(g16
g17
(g13
g169
tp1574
tp1575
Rp1576
sg176
g0
(g16
g17
(g13
g176
tp1577
tp1578
Rp1579
sg190
g0
(g16
g17
(g13
g190
tp1580
tp1581
Rp1582
sg204
g0
(g16
g17
(g13
g204
tp1583
tp1584
Rp1585
sg211
g0
(g16
g17
(g13
g211
tp1586
tp1587
Rp1588
sg218
g0
(g16
g17
(g13
g218
tp1589
tp1590
Rp1591
sg225
g0
(g16
g17
(g13
g225
tp1592
tp1593
Rp1594
sg43
g0
(g16
g17
(g13
g43
tp1595
tp1596
Rp1597
sg232
g0
(g16
g17
(g13
g232
tp1598
tp1599
Rp1600
sg50
g0
(g16
g17
(g13
g50
tp1601
tp1602
Rp1603
sg239
g0
(g16
g17
(g13
g239
tp1604
tp1605
Rp1606
sg253
g0
(g16
g17
(g13
g253
tp1607
tp1608
Rp1609
sg260
g0
(g16
g17
(g13
g260
tp1610
tp1611
Rp1612
sg267
g0
(g16
g17
(g13
g267
tp1613
tp1614
Rp1615
sg295
g0
(g16
g17
(g13
g295
tp1616
tp1617
Rp1618
sg281
g0
(g16
g17
(g13
g281
tp1619
tp1620
Rp1621
sg288
g0
(g16
g17
(g13
g288
tp1622
tp1623
Rp1624
sg302
g0
(g16
g17
(g13
g302
tp1625
tp1626
Rp1627
sg652
g0
(g16
g17
(g13
g652
tp1628
tp1629
Rp1630
sg309
g0
(g16
g17
(g13
g309
tp1631
tp1632
Rp1633
sg426
g0
(g16
g17
(g13
g426
tp1634
tp1635
Rp1636
sg316
g0
(g16
g17
(g13
g316
tp1637
tp1638
Rp1639
sg323
g0
(g16
g17
(g13
g323
tp1640
tp1641
Rp1642
sg330
g0
(g16
g17
(g13
g330
tp1643
tp1644
Rp1645
ssg0
(g4
g5
Ntp1646
Rp1647
(dp1648
g9
S'/wiki/Virgin_Games'
p1649
sb(dp1650
g367
g0
(g16
g17
(g1647
g367
tp1651
tp1652
Rp1653
ssg0
(g4
g5
Ntp1654
Rp1655
(dp1656
g9
S'/wiki/102_Dalmatians:_Puppies_to_the_Rescue'
p1657
sb(dp1658
g652
g0
(g16
g17
(g1655
g652
tp1659
tp1660
Rp1661
sg113
g0
(g16
g17
(g1655
g113
tp1662
tp1663
Rp1664
sg0
(g4
g5
Ntp1665
Rp1666
(dp1667
g9
S'/wiki/101_Dalmatians:_Escape_from_DeVil_Manor'
p1668
sbg0
(g16
g17
(g1655
g1666
tp1669
tp1670
Rp1671
sg603
g0
(g16
g17
(g1655
g603
tp1672
tp1673
Rp1674
sg43
g0
(g16
g17
(g1655
g43
tp1675
tp1676
Rp1677
ssg169
(dp1678
g246
g0
(g16
g17
(g169
g246
tp1679
tp1680
Rp1681
sg71
g0
(g16
g17
(g169
g71
tp1682
tp1683
Rp1684
sg36
g0
(g16
g17
(g169
g36
tp1685
tp1686
Rp1687
sg442
g0
(g16
g17
(g169
g442
tp1688
tp1689
Rp1690
sg426
g0
(g16
g17
(g169
g426
tp1691
tp1692
Rp1693
sg29
g0
(g16
g17
(g169
g29
tp1694
tp1695
Rp1696
sg302
g0
(g16
g17
(g169
g302
tp1697
tp1698
Rp1699
sg295
g0
(g16
g17
(g169
g295
tp1700
tp1701
Rp1702
sg141
g0
(g16
g17
(g169
g141
tp1703
tp1704
Rp1705
sg281
g0
(g16
g17
(g169
g281
tp1706
tp1707
Rp1708
sg50
g0
(g16
g17
(g169
g50
tp1709
tp1710
Rp1711
sg106
g0
(g16
g17
(g169
g106
tp1712
tp1713
Rp1714
sg113
g0
(g16
g17
(g169
g113
tp1715
tp1716
Rp1717
sg267
g0
(g16
g17
(g169
g267
tp1718
tp1719
Rp1720
ssg176
(dp1721
g13
g0
(g16
g17
(g176
g13
tp1722
tp1723
Rp1724
sg7
g0
(g16
g17
(g176
g7
tp1725
tp1726
Rp1727
sg396
g0
(g16
g17
(g176
g396
tp1728
tp1729
Rp1730
sg22
g0
(g16
g17
(g176
g22
tp1731
tp1732
Rp1733
sg29
g0
(g16
g17
(g176
g29
tp1734
tp1735
Rp1736
sg36
g0
(g16
g17
(g176
g36
tp1737
tp1738
Rp1739
sg530
g0
(g16
g17
(g176
g530
tp1740
tp1741
Rp1742
sg43
g0
(g16
g17
(g176
g43
tp1743
tp1744
Rp1745
sg246
g0
(g16
g17
(g176
g246
tp1746
tp1747
Rp1748
sg57
g0
(g16
g17
(g176
g57
tp1749
tp1750
Rp1751
sg64
g0
(g16
g17
(g176
g64
tp1752
tp1753
Rp1754
sg71
g0
(g16
g17
(g176
g71
tp1755
tp1756
Rp1757
sg78
g0
(g16
g17
(g176
g78
tp1758
tp1759
Rp1760
sg85
g0
(g16
g17
(g176
g85
tp1761
tp1762
Rp1763
sg92
g0
(g16
g17
(g176
g92
tp1764
tp1765
Rp1766
sg99
g0
(g16
g17
(g176
g99
tp1767
tp1768
Rp1769
sg106
g0
(g16
g17
(g176
g106
tp1770
tp1771
Rp1772
sg113
g0
(g16
g17
(g176
g113
tp1773
tp1774
Rp1775
sg442
g0
(g16
g17
(g176
g442
tp1776
tp1777
Rp1778
sg127
g0
(g16
g17
(g176
g127
tp1779
tp1780
Rp1781
sg134
g0
(g16
g17
(g176
g134
tp1782
tp1783
Rp1784
sg141
g0
(g16
g17
(g176
g141
tp1785
tp1786
Rp1787
sg148
g0
(g16
g17
(g176
g148
tp1788
tp1789
Rp1790
sg162
g0
(g16
g17
(g176
g162
tp1791
tp1792
Rp1793
sg169
g0
(g16
g17
(g176
g169
tp1794
tp1795
Rp1796
sg120
g0
(g16
g17
(g176
g120
tp1797
tp1798
Rp1799
sg190
g0
(g16
g17
(g176
g190
tp1800
tp1801
Rp1802
sg204
g0
(g16
g17
(g176
g204
tp1803
tp1804
Rp1805
sg211
g0
(g16
g17
(g176
g211
tp1806
tp1807
Rp1808
sg218
g0
(g16
g17
(g176
g218
tp1809
tp1810
Rp1811
sg403
g0
(g16
g17
(g176
g403
tp1812
tp1813
Rp1814
sg232
g0
(g16
g17
(g176
g232
tp1815
tp1816
Rp1817
sg50
g0
(g16
g17
(g176
g50
tp1818
tp1819
Rp1820
sg239
g0
(g16
g17
(g176
g239
tp1821
tp1822
Rp1823
sg253
g0
(g16
g17
(g176
g253
tp1824
tp1825
Rp1826
sg260
g0
(g16
g17
(g176
g260
tp1827
tp1828
Rp1829
sg267
g0
(g16
g17
(g176
g267
tp1830
tp1831
Rp1832
sg295
g0
(g16
g17
(g176
g295
tp1833
tp1834
Rp1835
sg281
g0
(g16
g17
(g176
g281
tp1836
tp1837
Rp1838
sg288
g0
(g16
g17
(g176
g288
tp1839
tp1840
Rp1841
sg302
g0
(g16
g17
(g176
g302
tp1842
tp1843
Rp1844
sg309
g0
(g16
g17
(g176
g309
tp1845
tp1846
Rp1847
sg426
g0
(g16
g17
(g176
g426
tp1848
tp1849
Rp1850
sg225
g0
(g16
g17
(g176
g225
tp1851
tp1852
Rp1853
sg316
g0
(g16
g17
(g176
g316
tp1854
tp1855
Rp1856
sg323
g0
(g16
g17
(g176
g323
tp1857
tp1858
Rp1859
sg330
g0
(g16
g17
(g176
g330
tp1860
tp1861
Rp1862
ssg183
(dp1863
g197
g0
(g16
g17
(g183
g197
tp1864
tp1865
Rp1866
ssg0
(g4
g5
Ntp1867
Rp1868
(dp1869
g9
S'/wiki/Monte_Cristo'
p1870
sb(dp1871
sg211
(dp1872
g13
g0
(g16
g17
(g211
g13
tp1873
tp1874
Rp1875
sg7
g0
(g16
g17
(g211
g7
tp1876
tp1877
Rp1878
sg1364
g0
(g16
g17
(g211
g1364
tp1879
tp1880
Rp1881
sg22
g0
(g16
g17
(g211
g22
tp1882
tp1883
Rp1884
sg442
g0
(g16
g17
(g211
g442
tp1885
tp1886
Rp1887
sg29
g0
(g16
g17
(g211
g29
tp1888
tp1889
Rp1890
sg43
g0
(g16
g17
(g211
g43
tp1891
tp1892
Rp1893
sg246
g0
(g16
g17
(g211
g246
tp1894
tp1895
Rp1896
sg57
g0
(g16
g17
(g211
g57
tp1897
tp1898
Rp1899
sg64
g0
(g16
g17
(g211
g64
tp1900
tp1901
Rp1902
sg357
g0
(g16
g17
(g211
g357
tp1903
tp1904
Rp1905
sg78
g0
(g16
g17
(g211
g78
tp1906
tp1907
Rp1908
sg85
g0
(g16
g17
(g211
g85
tp1909
tp1910
Rp1911
sg92
g0
(g16
g17
(g211
g92
tp1912
tp1913
Rp1914
sg99
g0
(g16
g17
(g211
g99
tp1915
tp1916
Rp1917
sg106
g0
(g16
g17
(g211
g106
tp1918
tp1919
Rp1920
sg71
g0
(g16
g17
(g211
g71
tp1921
tp1922
Rp1923
sg302
g0
(g16
g17
(g211
g302
tp1924
tp1925
Rp1926
sg113
g0
(g16
g17
(g211
g113
tp1927
tp1928
Rp1929
sg120
g0
(g16
g17
(g211
g120
tp1930
tp1931
Rp1932
sg127
g0
(g16
g17
(g211
g127
tp1933
tp1934
Rp1935
sg134
g0
(g16
g17
(g211
g134
tp1936
tp1937
Rp1938
sg141
g0
(g16
g17
(g211
g141
tp1939
tp1940
Rp1941
sg148
g0
(g16
g17
(g211
g148
tp1942
tp1943
Rp1944
sg155
g0
(g16
g17
(g211
g155
tp1945
tp1946
Rp1947
sg162
g0
(g16
g17
(g211
g162
tp1948
tp1949
Rp1950
sg169
g0
(g16
g17
(g211
g169
tp1951
tp1952
Rp1953
sg176
g0
(g16
g17
(g211
g176
tp1954
tp1955
Rp1956
sg367
g0
(g16
g17
(g211
g367
tp1957
tp1958
Rp1959
sg190
g0
(g16
g17
(g211
g190
tp1960
tp1961
Rp1962
sg204
g0
(g16
g17
(g211
g204
tp1963
tp1964
Rp1965
sg295
g0
(g16
g17
(g211
g295
tp1966
tp1967
Rp1968
sg218
g0
(g16
g17
(g211
g218
tp1969
tp1970
Rp1971
sg225
g0
(g16
g17
(g211
g225
tp1972
tp1973
Rp1974
sg232
g0
(g16
g17
(g211
g232
tp1975
tp1976
Rp1977
sg50
g0
(g16
g17
(g211
g50
tp1978
tp1979
Rp1980
sg239
g0
(g16
g17
(g211
g239
tp1981
tp1982
Rp1983
sg253
g0
(g16
g17
(g211
g253
tp1984
tp1985
Rp1986
sg260
g0
(g16
g17
(g211
g260
tp1987
tp1988
Rp1989
sg267
g0
(g16
g17
(g211
g267
tp1990
tp1991
Rp1992
sg281
g0
(g16
g17
(g211
g281
tp1993
tp1994
Rp1995
sg288
g0
(g16
g17
(g211
g288
tp1996
tp1997
Rp1998
sg530
g0
(g16
g17
(g211
g530
tp1999
tp2000
Rp2001
sg309
g0
(g16
g17
(g211
g309
tp2002
tp2003
Rp2004
sg426
g0
(g16
g17
(g211
g426
tp2005
tp2006
Rp2007
sg316
g0
(g16
g17
(g211
g316
tp2008
tp2009
Rp2010
sg323
g0
(g16
g17
(g211
g323
tp2011
tp2012
Rp2013
sg330
g0
(g16
g17
(g211
g330
tp2014
tp2015
Rp2016
ssg267
(dp2017
g169
g0
(g16
g17
(g267
g169
tp2018
tp2019
Rp2020
sg281
g0
(g16
g17
(g267
g281
tp2021
tp2022
Rp2023
sg71
g0
(g16
g17
(g267
g71
tp2024
tp2025
Rp2026
sg442
g0
(g16
g17
(g267
g442
tp2027
tp2028
Rp2029
sg29
g0
(g16
g17
(g267
g29
tp2030
tp2031
Rp2032
sg302
g0
(g16
g17
(g267
g302
tp2033
tp2034
Rp2035
sg295
g0
(g16
g17
(g267
g295
tp2036
tp2037
Rp2038
sg141
g0
(g16
g17
(g267
g141
tp2039
tp2040
Rp2041
sg246
g0
(g16
g17
(g267
g246
tp2042
tp2043
Rp2044
sg50
g0
(g16
g17
(g267
g50
tp2045
tp2046
Rp2047
sg106
g0
(g16
g17
(g267
g106
tp2048
tp2049
Rp2050
sg113
g0
(g16
g17
(g267
g113
tp2051
tp2052
Rp2053
ssg761
(dp2054
sg0
(g4
g5
Ntp2055
Rp2056
(dp2057
g9
S'/wiki/4X4_World_Trophy'
p2058
sb(dp2059
g426
g0
(g16
g17
(g2056
g426
tp2060
tp2061
Rp2062
sg113
g0
(g16
g17
(g2056
g113
tp2063
tp2064
Rp2065
sg50
g0
(g16
g17
(g2056
g50
tp2066
tp2067
Rp2068
ssg50
(dp2069
g169
g0
(g16
g17
(g50
g169
tp2070
tp2071
Rp2072
sg155
g0
(g16
g17
(g50
g155
tp2073
tp2074
Rp2075
sg71
g0
(g16
g17
(g50
g71
tp2076
tp2077
Rp2078
sg442
g0
(g16
g17
(g50
g442
tp2079
tp2080
Rp2081
sg426
g0
(g16
g17
(g50
g426
tp2082
tp2083
Rp2084
sg29
g0
(g16
g17
(g50
g29
tp2085
tp2086
Rp2087
sg302
g0
(g16
g17
(g50
g302
tp2088
tp2089
Rp2090
sg295
g0
(g16
g17
(g50
g295
tp2091
tp2092
Rp2093
sg141
g0
(g16
g17
(g50
g141
tp2094
tp2095
Rp2096
sg281
g0
(g16
g17
(g50
g281
tp2097
tp2098
Rp2099
sg246
g0
(g16
g17
(g50
g246
tp2100
tp2101
Rp2102
sg106
g0
(g16
g17
(g50
g106
tp2103
tp2104
Rp2105
sg113
g0
(g16
g17
(g50
g113
tp2106
tp2107
Rp2108
sg267
g0
(g16
g17
(g50
g267
tp2109
tp2110
Rp2111
ssg0
(g4
g5
Ntp2112
Rp2113
(dp2114
g9
S'/w/index.php?title=SDR_Project&action=edit&redlink=1'
p2115
sb(dp2116
sg253
(dp2117
g13
g0
(g16
g17
(g253
g13
tp2118
tp2119
Rp2120
sg7
g0
(g16
g17
(g253
g7
tp2121
tp2122
Rp2123
sg511
g0
(g16
g17
(g253
g511
tp2124
tp2125
Rp2126
sg22
g0
(g16
g17
(g253
g22
tp2127
tp2128
Rp2129
sg442
g0
(g16
g17
(g253
g442
tp2130
tp2131
Rp2132
sg183
g0
(g16
g17
(g253
g183
tp2133
tp2134
Rp2135
sg36
g0
(g16
g17
(g253
g36
tp2136
tp2137
Rp2138
sg367
g0
(g16
g17
(g253
g367
tp2139
tp2140
Rp2141
sg50
g0
(g16
g17
(g253
g50
tp2142
tp2143
Rp2144
sg57
g0
(g16
g17
(g253
g57
tp2145
tp2146
Rp2147
sg64
g0
(g16
g17
(g253
g64
tp2148
tp2149
Rp2150
sg71
g0
(g16
g17
(g253
g71
tp2151
tp2152
Rp2153
sg78
g0
(g16
g17
(g253
g78
tp2154
tp2155
Rp2156
sg85
g0
(g16
g17
(g253
g85
tp2157
tp2158
Rp2159
sg92
g0
(g16
g17
(g253
g92
tp2160
tp2161
Rp2162
sg99
g0
(g16
g17
(g253
g99
tp2163
tp2164
Rp2165
sg106
g0
(g16
g17
(g253
g106
tp2166
tp2167
Rp2168
sg113
g0
(g16
g17
(g253
g113
tp2169
tp2170
Rp2171
sg120
g0
(g16
g17
(g253
g120
tp2172
tp2173
Rp2174
sg127
g0
(g16
g17
(g253
g127
tp2175
tp2176
Rp2177
sg134
g0
(g16
g17
(g253
g134
tp2178
tp2179
Rp2180
sg141
g0
(g16
g17
(g253
g141
tp2181
tp2182
Rp2183
sg148
g0
(g16
g17
(g253
g148
tp2184
tp2185
Rp2186
sg155
g0
(g16
g17
(g253
g155
tp2187
tp2188
Rp2189
sg162
g0
(g16
g17
(g253
g162
tp2190
tp2191
Rp2192
sg530
g0
(g16
g17
(g253
g530
tp2193
tp2194
Rp2195
sg176
g0
(g16
g17
(g253
g176
tp2196
tp2197
Rp2198
sg190
g0
(g16
g17
(g253
g190
tp2199
tp2200
Rp2201
sg197
g0
(g16
g17
(g253
g197
tp2202
tp2203
Rp2204
sg204
g0
(g16
g17
(g253
g204
tp2205
tp2206
Rp2207
sg211
g0
(g16
g17
(g253
g211
tp2208
tp2209
Rp2210
sg29
g0
(g16
g17
(g253
g29
tp2211
tp2212
Rp2213
sg218
g0
(g16
g17
(g253
g218
tp2214
tp2215
Rp2216
sg225
g0
(g16
g17
(g253
g225
tp2217
tp2218
Rp2219
sg43
g0
(g16
g17
(g253
g43
tp2220
tp2221
Rp2222
sg232
g0
(g16
g17
(g253
g232
tp2223
tp2224
Rp2225
sg239
g0
(g16
g17
(g253
g239
tp2226
tp2227
Rp2228
sg246
g0
(g16
g17
(g253
g246
tp2229
tp2230
Rp2231
sg169
g0
(g16
g17
(g253
g169
tp2232
tp2233
Rp2234
sg260
g0
(g16
g17
(g253
g260
tp2235
tp2236
Rp2237
sg267
g0
(g16
g17
(g253
g267
tp2238
tp2239
Rp2240
sg295
g0
(g16
g17
(g253
g295
tp2241
tp2242
Rp2243
sg281
g0
(g16
g17
(g253
g281
tp2244
tp2245
Rp2246
sg479
g0
(g16
g17
(g253
g479
tp2247
tp2248
Rp2249
sg288
g0
(g16
g17
(g253
g288
tp2250
tp2251
Rp2252
sg302
g0
(g16
g17
(g253
g302
tp2253
tp2254
Rp2255
sg652
g0
(g16
g17
(g253
g652
tp2256
tp2257
Rp2258
sg309
g0
(g16
g17
(g253
g309
tp2259
tp2260
Rp2261
sg426
g0
(g16
g17
(g253
g426
tp2262
tp2263
Rp2264
sg316
g0
(g16
g17
(g253
g316
tp2265
tp2266
Rp2267
sg323
g0
(g16
g17
(g253
g323
tp2268
tp2269
Rp2270
sg330
g0
(g16
g17
(g253
g330
tp2271
tp2272
Rp2273
ssg0
(g4
g5
Ntp2274
Rp2275
(dp2276
g9
S'/wiki/7_Wonders_of_the_Ancient_World_(video_game)'
p2277
sb(dp2278
g1364
g0
(g16
g17
(g2275
g1364
tp2279
tp2280
Rp2281
sg113
g0
(g16
g17
(g2275
g113
tp2282
tp2283
Rp2284
ssg469
(dp2285
g442
g0
(g16
g17
(g469
g442
tp2286
tp2287
Rp2288
sg461
g0
(g16
g17
(g469
g461
tp2289
tp2290
Rp2291
ssg0
(g4
g5
Ntp2292
Rp2293
(dp2294
g9
S'/wiki/DreamForge_Intertainment'
p2295
sb(dp2296
g1666
g0
(g16
g17
(g2293
g1666
tp2297
tp2298
Rp2299
ssg0
(g4
g5
Ntp2300
Rp2301
(dp2302
g9
S'/wiki/2006_FIFA_World_Cup_(video_game)'
p2303
sb(dp2304
g113
g0
(g16
g17
(g2301
g113
tp2305
tp2306
Rp2307
sg0
(g4
g5
Ntp2308
Rp2309
(dp2310
g9
S'/wiki/2002_FIFA_World_Cup_(video_game)'
p2311
sbg0
(g16
g17
(g2301
g2309
tp2312
tp2313
Rp2314
sg183
g0
(g16
g17
(g2301
g183
tp2315
tp2316
Rp2317
sg197
g0
(g16
g17
(g2301
g197
tp2318
tp2319
Rp2320
ssg134
(dp2321
g13
g0
(g16
g17
(g134
g13
tp2322
tp2323
Rp2324
sg7
g0
(g16
g17
(g134
g7
tp2325
tp2326
Rp2327
sg22
g0
(g16
g17
(g134
g22
tp2328
tp2329
Rp2330
sg442
g0
(g16
g17
(g134
g442
tp2331
tp2332
Rp2333
sg29
g0
(g16
g17
(g134
g29
tp2334
tp2335
Rp2336
sg50
g0
(g16
g17
(g134
g50
tp2337
tp2338
Rp2339
sg57
g0
(g16
g17
(g134
g57
tp2340
tp2341
Rp2342
sg64
g0
(g16
g17
(g134
g64
tp2343
tp2344
Rp2345
sg71
g0
(g16
g17
(g134
g71
tp2346
tp2347
Rp2348
sg78
g0
(g16
g17
(g134
g78
tp2349
tp2350
Rp2351
sg85
g0
(g16
g17
(g134
g85
tp2352
tp2353
Rp2354
sg92
g0
(g16
g17
(g134
g92
tp2355
tp2356
Rp2357
sg99
g0
(g16
g17
(g134
g99
tp2358
tp2359
Rp2360
sg106
g0
(g16
g17
(g134
g106
tp2361
tp2362
Rp2363
sg113
g0
(g16
g17
(g134
g113
tp2364
tp2365
Rp2366
sg120
g0
(g16
g17
(g134
g120
tp2367
tp2368
Rp2369
sg127
g0
(g16
g17
(g134
g127
tp2370
tp2371
Rp2372
sg141
g0
(g16
g17
(g134
g141
tp2373
tp2374
Rp2375
sg148
g0
(g16
g17
(g134
g148
tp2376
tp2377
Rp2378
sg162
g0
(g16
g17
(g134
g162
tp2379
tp2380
Rp2381
sg169
g0
(g16
g17
(g134
g169
tp2382
tp2383
Rp2384
sg176
g0
(g16
g17
(g134
g176
tp2385
tp2386
Rp2387
sg190
g0
(g16
g17
(g134
g190
tp2388
tp2389
Rp2390
sg211
g0
(g16
g17
(g134
g211
tp2391
tp2392
Rp2393
sg218
g0
(g16
g17
(g134
g218
tp2394
tp2395
Rp2396
sg225
g0
(g16
g17
(g134
g225
tp2397
tp2398
Rp2399
sg232
g0
(g16
g17
(g134
g232
tp2400
tp2401
Rp2402
sg239
g0
(g16
g17
(g134
g239
tp2403
tp2404
Rp2405
sg253
g0
(g16
g17
(g134
g253
tp2406
tp2407
Rp2408
sg260
g0
(g16
g17
(g134
g260
tp2409
tp2410
Rp2411
sg295
g0
(g16
g17
(g134
g295
tp2412
tp2413
Rp2414
sg288
g0
(g16
g17
(g134
g288
tp2415
tp2416
Rp2417
sg204
g0
(g16
g17
(g134
g204
tp2418
tp2419
Rp2420
sg309
g0
(g16
g17
(g134
g309
tp2421
tp2422
Rp2423
sg316
g0
(g16
g17
(g134
g316
tp2424
tp2425
Rp2426
sg323
g0
(g16
g17
(g134
g323
tp2427
tp2428
Rp2429
sg330
g0
(g16
g17
(g134
g330
tp2430
tp2431
Rp2432
ssg309
(dp2433
g225
g0
(g16
g17
(g309
g225
tp2434
tp2435
Rp2436
sg204
g0
(g16
g17
(g309
g204
tp2437
tp2438
Rp2439
ssg225
(dp2440
sg204
(dp2441
sg43
(dp2442
g461
g0
(g16
g17
(g43
g461
tp2443
tp2444
Rp2445
sg603
g0
(g16
g17
(g43
g603
tp2446
tp2447
Rp2448
ssg511
(dp2449
g0
(g4
g5
Ntp2450
Rp2451
(dp2452
g9
S'/wiki/4x4_EVO_2'
p2453
sbg0
(g16
g17
(g511
g2451
tp2454
tp2455
Rp2456
sg530
g0
(g16
g17
(g511
g530
tp2457
tp2458
Rp2459
sg113
g0
(g16
g17
(g511
g113
tp2460
tp2461
Rp2462
sg0
(g4
g5
Ntp2463
Rp2464
(dp2465
g9
S'/wiki/4x4_Evolution'
p2466
sbg0
(g16
g17
(g511
g2464
tp2467
tp2468
Rp2469
ssg1364
(dp2470
sg396
(dp2471
g403
g0
(g16
g17
(g396
g403
tp2472
tp2473
Rp2474
sg113
g0
(g16
g17
(g396
g113
tp2475
tp2476
Rp2477
sg391
g0
(g16
g17
(g396
g391
tp2478
tp2479
Rp2480
ssg357
(dp2481
g352
g0
(g16
g17
(g357
g352
tp2482
tp2483
Rp2484
ssg0
(g4
g5
Ntp2485
Rp2486
(dp2487
g9
S'/wiki/2_Days_to_Vegas'
p2488
sb(dp2489
g113
g0
(g16
g17
(g2486
g113
tp2490
tp2491
Rp2492
ssg232
(dp2493
g13
g0
(g16
g17
(g232
g13
tp2494
tp2495
Rp2496
sg7
g0
(g16
g17
(g232
g7
tp2497
tp2498
Rp2499
sg22
g0
(g16
g17
(g232
g22
tp2500
tp2501
Rp2502
sg442
g0
(g16
g17
(g232
g442
tp2503
tp2504
Rp2505
sg29
g0
(g16
g17
(g232
g29
tp2506
tp2507
Rp2508
sg367
g0
(g16
g17
(g232
g367
tp2509
tp2510
Rp2511
sg246
g0
(g16
g17
(g232
g246
tp2512
tp2513
Rp2514
sg57
g0
(g16
g17
(g232
g57
tp2515
tp2516
Rp2517
sg64
g0
(g16
g17
(g232
g64
tp2518
tp2519
Rp2520
sg71
g0
(g16
g17
(g232
g71
tp2521
tp2522
Rp2523
sg78
g0
(g16
g17
(g232
g78
tp2524
tp2525
Rp2526
sg85
g0
(g16
g17
(g232
g85
tp2527
tp2528
Rp2529
sg92
g0
(g16
g17
(g232
g92
tp2530
tp2531
Rp2532
sg99
g0
(g16
g17
(g232
g99
tp2533
tp2534
Rp2535
sg106
g0
(g16
g17
(g232
g106
tp2536
tp2537
Rp2538
sg113
g0
(g16
g17
(g232
g113
tp2539
tp2540
Rp2541
sg120
g0
(g16
g17
(g232
g120
tp2542
tp2543
Rp2544
sg127
g0
(g16
g17
(g232
g127
tp2545
tp2546
Rp2547
sg134
g0
(g16
g17
(g232
g134
tp2548
tp2549
Rp2550
sg141
g0
(g16
g17
(g232
g141
tp2551
tp2552
Rp2553
sg148
g0
(g16
g17
(g232
g148
tp2554
tp2555
Rp2556
sg162
g0
(g16
g17
(g232
g162
tp2557
tp2558
Rp2559
sg169
g0
(g16
g17
(g232
g169
tp2560
tp2561
Rp2562
sg176
g0
(g16
g17
(g232
g176
tp2563
tp2564
Rp2565
sg190
g0
(g16
g17
(g232
g190
tp2566
tp2567
Rp2568
sg204
g0
(g16
g17
(g232
g204
tp2569
tp2570
Rp2571
sg211
g0
(g16
g17
(g232
g211
tp2572
tp2573
Rp2574
sg218
g0
(g16
g17
(g232
g218
tp2575
tp2576
Rp2577
sg225
g0
(g16
g17
(g232
g225
tp2578
tp2579
Rp2580
sg50
g0
(g16
g17
(g232
g50
tp2581
tp2582
Rp2583
sg239
g0
(g16
g17
(g232
g239
tp2584
tp2585
Rp2586
sg253
g0
(g16
g17
(g232
g253
tp2587
tp2588
Rp2589
sg260
g0
(g16
g17
(g232
g260
tp2590
tp2591
Rp2592
sg267
g0
(g16
g17
(g232
g267
tp2593
tp2594
Rp2595
sg295
g0
(g16
g17
(g232
g295
tp2596
tp2597
Rp2598
sg281
g0
(g16
g17
(g232
g281
tp2599
tp2600
Rp2601
sg288
g0
(g16
g17
(g232
g288
tp2602
tp2603
Rp2604
sg302
g0
(g16
g17
(g232
g302
tp2605
tp2606
Rp2607
sg309
g0
(g16
g17
(g232
g309
tp2608
tp2609
Rp2610
sg426
g0
(g16
g17
(g232
g426
tp2611
tp2612
Rp2613
sg316
g0
(g16
g17
(g232
g316
tp2614
tp2615
Rp2616
sg323
g0
(g16
g17
(g232
g323
tp2617
tp2618
Rp2619
sg330
g0
(g16
g17
(g232
g330
tp2620
tp2621
Rp2622
ssg288
(dp2623
g13
g0
(g16
g17
(g288
g13
tp2624
tp2625
Rp2626
sg442
g0
(g16
g17
(g288
g442
tp2627
tp2628
Rp2629
sg7
g0
(g16
g17
(g288
g7
tp2630
tp2631
Rp2632
sg22
g0
(g16
g17
(g288
g22
tp2633
tp2634
Rp2635
sg71
g0
(g16
g17
(g288
g71
tp2636
tp2637
Rp2638
sg530
g0
(g16
g17
(g288
g530
tp2639
tp2640
Rp2641
sg367
g0
(g16
g17
(g288
g367
tp2642
tp2643
Rp2644
sg50
g0
(g16
g17
(g288
g50
tp2645
tp2646
Rp2647
sg57
g0
(g16
g17
(g288
g57
tp2648
tp2649
Rp2650
sg64
g0
(g16
g17
(g288
g64
tp2651
tp2652
Rp2653
sg357
g0
(g16
g17
(g288
g357
tp2654
tp2655
Rp2656
sg78
g0
(g16
g17
(g288
g78
tp2657
tp2658
Rp2659
sg85
g0
(g16
g17
(g288
g85
tp2660
tp2661
Rp2662
sg92
g0
(g16
g17
(g288
g92
tp2663
tp2664
Rp2665
sg99
g0
(g16
g17
(g288
g99
tp2666
tp2667
Rp2668
sg106
g0
(g16
g17
(g288
g106
tp2669
tp2670
Rp2671
sg113
g0
(g16
g17
(g288
g113
tp2672
tp2673
Rp2674
sg120
g0
(g16
g17
(g288
g120
tp2675
tp2676
Rp2677
sg127
g0
(g16
g17
(g288
g127
tp2678
tp2679
Rp2680
sg134
g0
(g16
g17
(g288
g134
tp2681
tp2682
Rp2683
sg141
g0
(g16
g17
(g288
g141
tp2684
tp2685
Rp2686
sg148
g0
(g16
g17
(g288
g148
tp2687
tp2688
Rp2689
sg155
g0
(g16
g17
(g288
g155
tp2690
tp2691
Rp2692
sg162
g0
(g16
g17
(g288
g162
tp2693
tp2694
Rp2695
sg169
g0
(g16
g17
(g288
g169
tp2696
tp2697
Rp2698
sg176
g0
(g16
g17
(g288
g176
tp2699
tp2700
Rp2701
sg190
g0
(g16
g17
(g288
g190
tp2702
tp2703
Rp2704
sg204
g0
(g16
g17
(g288
g204
tp2705
tp2706
Rp2707
sg211
g0
(g16
g17
(g288
g211
tp2708
tp2709
Rp2710
sg218
g0
(g16
g17
(g288
g218
tp2711
tp2712
Rp2713
sg225
g0
(g16
g17
(g288
g225
tp2714
tp2715
Rp2716
sg43
g0
(g16
g17
(g288
g43
tp2717
tp2718
Rp2719
sg232
g0
(g16
g17
(g288
g232
tp2720
tp2721
Rp2722
sg239
g0
(g16
g17
(g288
g239
tp2723
tp2724
Rp2725
sg246
g0
(g16
g17
(g288
g246
tp2726
tp2727
Rp2728
sg253
g0
(g16
g17
(g288
g253
tp2729
tp2730
Rp2731
sg260
g0
(g16
g17
(g288
g260
tp2732
tp2733
Rp2734
sg267
g0
(g16
g17
(g288
g267
tp2735
tp2736
Rp2737
sg295
g0
(g16
g17
(g288
g295
tp2738
tp2739
Rp2740
sg281
g0
(g16
g17
(g288
g281
tp2741
tp2742
Rp2743
sg302
g0
(g16
g17
(g288
g302
tp2744
tp2745
Rp2746
sg309
g0
(g16
g17
(g288
g309
tp2747
tp2748
Rp2749
sg316
g0
(g16
g17
(g288
g316
tp2750
tp2751
Rp2752
sg323
g0
(g16
g17
(g288
g323
tp2753
tp2754
Rp2755
sg330
g0
(g16
g17
(g288
g330
tp2756
tp2757
Rp2758
ssg36
(dp2759
g0
(g4
g5
Ntp2760
Rp2761
(dp2762
g9
S'/wiki/2_On_2_Open_Ice_Challenge'
p2763
sbg0
(g16
g17
(g36
g2761
tp2764
tp2765
Rp2766
ssg302
(dp2767
g246
g0
(g16
g17
(g302
g246
tp2768
tp2769
Rp2770
sg169
g0
(g16
g17
(g302
g169
tp2771
tp2772
Rp2773
sg71
g0
(g16
g17
(g302
g71
tp2774
tp2775
Rp2776
sg36
g0
(g16
g17
(g302
g36
tp2777
tp2778
Rp2779
sg281
g0
(g16
g17
(g302
g281
tp2780
tp2781
Rp2782
sg29
g0
(g16
g17
(g302
g29
tp2783
tp2784
Rp2785
sg652
g0
(g16
g17
(g302
g652
tp2786
tp2787
Rp2788
sg295
g0
(g16
g17
(g302
g295
tp2789
tp2790
Rp2791
sg141
g0
(g16
g17
(g302
g141
tp2792
tp2793
Rp2794
sg442
g0
(g16
g17
(g302
g442
tp2795
tp2796
Rp2797
sg50
g0
(g16
g17
(g302
g50
tp2798
tp2799
Rp2800
sg106
g0
(g16
g17
(g302
g106
tp2801
tp2802
Rp2803
sg113
g0
(g16
g17
(g302
g113
tp2804
tp2805
Rp2806
sg267
g0
(g16
g17
(g302
g267
tp2807
tp2808
Rp2809
ssg735
(dp2810
g730
g0
(g16
g17
(g735
g730
tp2811
tp2812
Rp2813
ssg246
(dp2814
g169
g0
(g16
g17
(g246
g169
tp2815
tp2816
Rp2817
sg155
g0
(g16
g17
(g246
g155
tp2818
tp2819
Rp2820
sg71
g0
(g16
g17
(g246
g71
tp2821
tp2822
Rp2823
sg267
g0
(g16
g17
(g246
g267
tp2824
tp2825
Rp2826
sg36
g0
(g16
g17
(g246
g36
tp2827
tp2828
Rp2829
sg442
g0
(g16
g17
(g246
g442
tp2830
tp2831
Rp2832
sg426
g0
(g16
g17
(g246
g426
tp2833
tp2834
Rp2835
sg302
g0
(g16
g17
(g246
g302
tp2836
tp2837
Rp2838
sg295
g0
(g16
g17
(g246
g295
tp2839
tp2840
Rp2841
sg29
g0
(g16
g17
(g246
g29
tp2842
tp2843
Rp2844
sg141
g0
(g16
g17
(g246
g141
tp2845
tp2846
Rp2847
sg281
g0
(g16
g17
(g246
g281
tp2848
tp2849
Rp2850
sg50
g0
(g16
g17
(g246
g50
tp2851
tp2852
Rp2853
sg106
g0
(g16
g17
(g246
g106
tp2854
tp2855
Rp2856
sg43
g0
(g16
g17
(g246
g43
tp2857
tp2858
Rp2859
ssg274
(dp2860
g1058
g0
(g16
g17
(g274
g1058
tp2861
tp2862
Rp2863
sg372
g0
(g16
g17
(g274
g372
tp2864
tp2865
Rp2866
ssg1666
(dp2867
g281
g0
(g16
g17
(g1666
g281
tp2868
tp2869
Rp2870
sg652
g0
(g16
g17
(g1666
g652
tp2871
tp2872
Rp2873
sg1655
g0
(g16
g17
(g1666
g1655
tp2874
tp2875
Rp2876
ssg2451
(dp2877
g36
g0
(g16
g17
(g2451
g36
tp2878
tp2879
Rp2880
sg511
g0
(g16
g17
(g2451
g511
tp2881
tp2882
Rp2883
sg2464
g0
(g16
g17
(g2451
g2464
tp2884
tp2885
Rp2886
sg530
g0
(g16
g17
(g2451
g530
tp2887
tp2888
Rp2889
sg113
g0
(g16
g17
(g2451
g113
tp2890
tp2891
Rp2892
ssg92
(dp2893
g13
g0
(g16
g17
(g92
g13
tp2894
tp2895
Rp2896
sg7
g0
(g16
g17
(g92
g7
tp2897
tp2898
Rp2899
sg1647
g0
(g16
g17
(g92
g1647
tp2900
tp2901
Rp2902
sg367
g0
(g16
g17
(g92
g367
tp2903
tp2904
Rp2905
sg22
g0
(g16
g17
(g92
g22
tp2906
tp2907
Rp2908
sg442
g0
(g16
g17
(g92
g442
tp2909
tp2910
Rp2911
sg29
g0
(g16
g17
(g92
g29
tp2912
tp2913
Rp2914
sg479
g0
(g16
g17
(g92
g479
tp2915
tp2916
Rp2917
sg43
g0
(g16
g17
(g92
g43
tp2918
tp2919
Rp2920
sg50
g0
(g16
g17
(g92
g50
tp2921
tp2922
Rp2923
sg57
g0
(g16
g17
(g92
g57
tp2924
tp2925
Rp2926
sg64
g0
(g16
g17
(g92
g64
tp2927
tp2928
Rp2929
sg274
g0
(g16
g17
(g92
g274
tp2930
tp2931
Rp2932
sg71
g0
(g16
g17
(g92
g71
tp2933
tp2934
Rp2935
sg78
g0
(g16
g17
(g92
g78
tp2936
tp2937
Rp2938
sg85
g0
(g16
g17
(g92
g85
tp2939
tp2940
Rp2941
sg426
g0
(g16
g17
(g92
g426
tp2942
tp2943
Rp2944
sg99
g0
(g16
g17
(g92
g99
tp2945
tp2946
Rp2947
sg357
g0
(g16
g17
(g92
g357
tp2948
tp2949
Rp2950
sg106
g0
(g16
g17
(g92
g106
tp2951
tp2952
Rp2953
sg113
g0
(g16
g17
(g92
g113
tp2954
tp2955
Rp2956
sg120
g0
(g16
g17
(g92
g120
tp2957
tp2958
Rp2959
sg127
g0
(g16
g17
(g92
g127
tp2960
tp2961
Rp2962
sg134
g0
(g16
g17
(g92
g134
tp2963
tp2964
Rp2965
sg141
g0
(g16
g17
(g92
g141
tp2966
tp2967
Rp2968
sg148
g0
(g16
g17
(g92
g148
tp2969
tp2970
Rp2971
sg162
g0
(g16
g17
(g92
g162
tp2972
tp2973
Rp2974
sg169
g0
(g16
g17
(g92
g169
tp2975
tp2976
Rp2977
sg176
g0
(g16
g17
(g92
g176
tp2978
tp2979
Rp2980
sg190
g0
(g16
g17
(g92
g190
tp2981
tp2982
Rp2983
sg197
g0
(g16
g17
(g92
g197
tp2984
tp2985
Rp2986
sg204
g0
(g16
g17
(g92
g204
tp2987
tp2988
Rp2989
sg211
g0
(g16
g17
(g92
g211
tp2990
tp2991
Rp2992
sg218
g0
(g16
g17
(g92
g218
tp2993
tp2994
Rp2995
sg225
g0
(g16
g17
(g92
g225
tp2996
tp2997
Rp2998
sg232
g0
(g16
g17
(g92
g232
tp2999
tp3000
Rp3001
sg239
g0
(g16
g17
(g92
g239
tp3002
tp3003
Rp3004
sg469
g0
(g16
g17
(g92
g469
tp3005
tp3006
Rp3007
sg246
g0
(g16
g17
(g92
g246
tp3008
tp3009
Rp3010
sg253
g0
(g16
g17
(g92
g253
tp3011
tp3012
Rp3013
sg260
g0
(g16
g17
(g92
g260
tp3014
tp3015
Rp3016
sg267
g0
(g16
g17
(g92
g267
tp3017
tp3018
Rp3019
sg295
g0
(g16
g17
(g92
g295
tp3020
tp3021
Rp3022
sg281
g0
(g16
g17
(g92
g281
tp3023
tp3024
Rp3025
sg288
g0
(g16
g17
(g92
g288
tp3026
tp3027
Rp3028
sg302
g0
(g16
g17
(g92
g302
tp3029
tp3030
Rp3031
sg309
g0
(g16
g17
(g92
g309
tp3032
tp3033
Rp3034
sg316
g0
(g16
g17
(g92
g316
tp3035
tp3036
Rp3037
sg323
g0
(g16
g17
(g92
g323
tp3038
tp3039
Rp3040
sg330
g0
(g16
g17
(g92
g330
tp3041
tp3042
Rp3043
ssg342
(dp3044
g337
g0
(g16
g17
(g342
g337
tp3045
tp3046
Rp3047
ssg64
(dp3048
g13
g0
(g16
g17
(g64
g13
tp3049
tp3050
Rp3051
sg442
g0
(g16
g17
(g64
g442
tp3052
tp3053
Rp3054
sg7
g0
(g16
g17
(g64
g7
tp3055
tp3056
Rp3057
sg22
g0
(g16
g17
(g64
g22
tp3058
tp3059
Rp3060
sg71
g0
(g16
g17
(g64
g71
tp3061
tp3062
Rp3063
sg29
g0
(g16
g17
(g64
g29
tp3064
tp3065
Rp3066
sg530
g0
(g16
g17
(g64
g530
tp3067
tp3068
Rp3069
sg50
g0
(g16
g17
(g64
g50
tp3070
tp3071
Rp3072
sg57
g0
(g16
g17
(g64
g57
tp3073
tp3074
Rp3075
sg106
g0
(g16
g17
(g64
g106
tp3076
tp3077
Rp3078
sg357
g0
(g16
g17
(g64
g357
tp3079
tp3080
Rp3081
sg78
g0
(g16
g17
(g64
g78
tp3082
tp3083
Rp3084
sg85
g0
(g16
g17
(g64
g85
tp3085
tp3086
Rp3087
sg92
g0
(g16
g17
(g64
g92
tp3088
tp3089
Rp3090
sg99
g0
(g16
g17
(g64
g99
tp3091
tp3092
Rp3093
sg113
g0
(g16
g17
(g64
g113
tp3094
tp3095
Rp3096
sg120
g0
(g16
g17
(g64
g120
tp3097
tp3098
Rp3099
sg127
g0
(g16
g17
(g64
g127
tp3100
tp3101
Rp3102
sg134
g0
(g16
g17
(g64
g134
tp3103
tp3104
Rp3105
sg141
g0
(g16
g17
(g64
g141
tp3106
tp3107
Rp3108
sg148
g0
(g16
g17
(g64
g148
tp3109
tp3110
Rp3111
sg162
g0
(g16
g17
(g64
g162
tp3112
tp3113
Rp3114
sg169
g0
(g16
g17
(g64
g169
tp3115
tp3116
Rp3117
sg176
g0
(g16
g17
(g64
g176
tp3118
tp3119
Rp3120
sg190
g0
(g16
g17
(g64
g190
tp3121
tp3122
Rp3123
sg204
g0
(g16
g17
(g64
g204
tp3124
tp3125
Rp3126
sg211
g0
(g16
g17
(g64
g211
tp3127
tp3128
Rp3129
sg218
g0
(g16
g17
(g64
g218
tp3130
tp3131
Rp3132
sg225
g0
(g16
g17
(g64
g225
tp3133
tp3134
Rp3135
sg232
g0
(g16
g17
(g64
g232
tp3136
tp3137
Rp3138
sg239
g0
(g16
g17
(g64
g239
tp3139
tp3140
Rp3141
sg253
g0
(g16
g17
(g64
g253
tp3142
tp3143
Rp3144
sg260
g0
(g16
g17
(g64
g260
tp3145
tp3146
Rp3147
sg267
g0
(g16
g17
(g64
g267
tp3148
tp3149
Rp3150
sg295
g0
(g16
g17
(g64
g295
tp3151
tp3152
Rp3153
sg281
g0
(g16
g17
(g64
g281
tp3154
tp3155
Rp3156
sg288
g0
(g16
g17
(g64
g288
tp3157
tp3158
Rp3159
sg302
g0
(g16
g17
(g64
g302
tp3160
tp3161
Rp3162
sg309
g0
(g16
g17
(g64
g309
tp3163
tp3164
Rp3165
sg426
g0
(g16
g17
(g64
g426
tp3166
tp3167
Rp3168
sg316
g0
(g16
g17
(g64
g316
tp3169
tp3170
Rp3171
sg323
g0
(g16
g17
(g64
g323
tp3172
tp3173
Rp3174
sg330
g0
(g16
g17
(g64
g330
tp3175
tp3176
Rp3177
ssg120
(dp3178
g13
g0
(g16
g17
(g120
g13
tp3179
tp3180
Rp3181
sg7
g0
(g16
g17
(g120
g7
tp3182
tp3183
Rp3184
sg22
g0
(g16
g17
(g120
g22
tp3185
tp3186
Rp3187
sg29
g0
(g16
g17
(g120
g29
tp3188
tp3189
Rp3190
sg50
g0
(g16
g17
(g120
g50
tp3191
tp3192
Rp3193
sg57
g0
(g16
g17
(g120
g57
tp3194
tp3195
Rp3196
sg64
g0
(g16
g17
(g120
g64
tp3197
tp3198
Rp3199
sg71
g0
(g16
g17
(g120
g71
tp3200
tp3201
Rp3202
sg78
g0
(g16
g17
(g120
g78
tp3203
tp3204
Rp3205
sg85
g0
(g16
g17
(g120
g85
tp3206
tp3207
Rp3208
sg92
g0
(g16
g17
(g120
g92
tp3209
tp3210
Rp3211
sg99
g0
(g16
g17
(g120
g99
tp3212
tp3213
Rp3214
sg106
g0
(g16
g17
(g120
g106
tp3215
tp3216
Rp3217
sg113
g0
(g16
g17
(g120
g113
tp3218
tp3219
Rp3220
sg127
g0
(g16
g17
(g120
g127
tp3221
tp3222
Rp3223
sg134
g0
(g16
g17
(g120
g134
tp3224
tp3225
Rp3226
sg141
g0
(g16
g17
(g120
g141
tp3227
tp3228
Rp3229
sg148
g0
(g16
g17
(g120
g148
tp3230
tp3231
Rp3232
sg162
g0
(g16
g17
(g120
g162
tp3233
tp3234
Rp3235
sg169
g0
(g16
g17
(g120
g169
tp3236
tp3237
Rp3238
sg176
g0
(g16
g17
(g120
g176
tp3239
tp3240
Rp3241
sg190
g0
(g16
g17
(g120
g190
tp3242
tp3243
Rp3244
sg204
g0
(g16
g17
(g120
g204
tp3245
tp3246
Rp3247
sg211
g0
(g16
g17
(g120
g211
tp3248
tp3249
Rp3250
sg218
g0
(g16
g17
(g120
g218
tp3251
tp3252
Rp3253
sg225
g0
(g16
g17
(g120
g225
tp3254
tp3255
Rp3256
sg232
g0
(g16
g17
(g120
g232
tp3257
tp3258
Rp3259
sg239
g0
(g16
g17
(g120
g239
tp3260
tp3261
Rp3262
sg246
g0
(g16
g17
(g120
g246
tp3263
tp3264
Rp3265
sg253
g0
(g16
g17
(g120
g253
tp3266
tp3267
Rp3268
sg260
g0
(g16
g17
(g120
g260
tp3269
tp3270
Rp3271
sg267
g0
(g16
g17
(g120
g267
tp3272
tp3273
Rp3274
sg295
g0
(g16
g17
(g120
g295
tp3275
tp3276
Rp3277
sg281
g0
(g16
g17
(g120
g281
tp3278
tp3279
Rp3280
sg288
g0
(g16
g17
(g120
g288
tp3281
tp3282
Rp3283
sg302
g0
(g16
g17
(g120
g302
tp3284
tp3285
Rp3286
sg309
g0
(g16
g17
(g120
g309
tp3287
tp3288
Rp3289
sg426
g0
(g16
g17
(g120
g426
tp3290
tp3291
Rp3292
sg316
g0
(g16
g17
(g120
g316
tp3293
tp3294
Rp3295
sg323
g0
(g16
g17
(g120
g323
tp3296
tp3297
Rp3298
sg330
g0
(g16
g17
(g120
g330
tp3299
tp3300
Rp3301
ssg113
(dp3302
sg0
(g4
g5
Ntp3303
Rp3304
(dp3305
g9
S'/wiki/Duke_University_Medical_Center'
p3306
sb(dp3307
sg2309
(dp3308
g113
g0
(g16
g17
(g2309
g113
tp3309
tp3310
Rp3311
sg2301
g0
(g16
g17
(g2309
g2301
tp3312
tp3313
Rp3314
sg183
g0
(g16
g17
(g2309
g183
tp3315
tp3316
Rp3317
sg197
g0
(g16
g17
(g2309
g197
tp3318
tp3319
Rp3320
ssg148
(dp3321
g13
g0
(g16
g17
(g148
g13
tp3322
tp3323
Rp3324
sg7
g0
(g16
g17
(g148
g7
tp3325
tp3326
Rp3327
sg1364
g0
(g16
g17
(g148
g1364
tp3328
tp3329
Rp3330
sg22
g0
(g16
g17
(g148
g22
tp3331
tp3332
Rp3333
sg442
g0
(g16
g17
(g148
g442
tp3334
tp3335
Rp3336
sg29
g0
(g16
g17
(g148
g29
tp3337
tp3338
Rp3339
sg36
g0
(g16
g17
(g148
g36
tp3340
tp3341
Rp3342
sg530
g0
(g16
g17
(g148
g530
tp3343
tp3344
Rp3345
sg43
g0
(g16
g17
(g148
g43
tp3346
tp3347
Rp3348
sg246
g0
(g16
g17
(g148
g246
tp3349
tp3350
Rp3351
sg57
g0
(g16
g17
(g148
g57
tp3352
tp3353
Rp3354
sg64
g0
(g16
g17
(g148
g64
tp3355
tp3356
Rp3357
sg71
g0
(g16
g17
(g148
g71
tp3358
tp3359
Rp3360
sg78
g0
(g16
g17
(g148
g78
tp3361
tp3362
Rp3363
sg85
g0
(g16
g17
(g148
g85
tp3364
tp3365
Rp3366
sg92
g0
(g16
g17
(g148
g92
tp3367
tp3368
Rp3369
sg99
g0
(g16
g17
(g148
g99
tp3370
tp3371
Rp3372
sg357
g0
(g16
g17
(g148
g357
tp3373
tp3374
Rp3375
sg106
g0
(g16
g17
(g148
g106
tp3376
tp3377
Rp3378
sg2293
g0
(g16
g17
(g148
g2293
tp3379
tp3380
Rp3381
sg113
g0
(g16
g17
(g148
g113
tp3382
tp3383
Rp3384
sg120
g0
(g16
g17
(g148
g120
tp3385
tp3386
Rp3387
sg127
g0
(g16
g17
(g148
g127
tp3388
tp3389
Rp3390
sg134
g0
(g16
g17
(g148
g134
tp3391
tp3392
Rp3393
sg141
g0
(g16
g17
(g148
g141
tp3394
tp3395
Rp3396
sg155
g0
(g16
g17
(g148
g155
tp3397
tp3398
Rp3399
sg162
g0
(g16
g17
(g148
g162
tp3400
tp3401
Rp3402
sg169
g0
(g16
g17
(g148
g169
tp3403
tp3404
Rp3405
sg176
g0
(g16
g17
(g148
g176
tp3406
tp3407
Rp3408
sg183
g0
(g16
g17
(g148
g183
tp3409
tp3410
Rp3411
sg190
g0
(g16
g17
(g148
g190
tp3412
tp3413
Rp3414
sg603
g0
(g16
g17
(g148
g603
tp3415
tp3416
Rp3417
sg204
g0
(g16
g17
(g148
g204
tp3418
tp3419
Rp3420
sg211
g0
(g16
g17
(g148
g211
tp3421
tp3422
Rp3423
sg197
g0
(g16
g17
(g148
g197
tp3424
tp3425
Rp3426
sg218
g0
(g16
g17
(g148
g218
tp3427
tp3428
Rp3429
sg225
g0
(g16
g17
(g148
g225
tp3430
tp3431
Rp3432
sg232
g0
(g16
g17
(g148
g232
tp3433
tp3434
Rp3435
sg50
g0
(g16
g17
(g148
g50
tp3436
tp3437
Rp3438
sg239
g0
(g16
g17
(g148
g239
tp3439
tp3440
Rp3441
sg253
g0
(g16
g17
(g148
g253
tp3442
tp3443
Rp3444
sg260
g0
(g16
g17
(g148
g260
tp3445
tp3446
Rp3447
sg267
g0
(g16
g17
(g148
g267
tp3448
tp3449
Rp3450
sg295
g0
(g16
g17
(g148
g295
tp3451
tp3452
Rp3453
sg281
g0
(g16
g17
(g148
g281
tp3454
tp3455
Rp3456
sg288
g0
(g16
g17
(g148
g288
tp3457
tp3458
Rp3459
sg302
g0
(g16
g17
(g148
g302
tp3460
tp3461
Rp3462
sg309
g0
(g16
g17
(g148
g309
tp3463
tp3464
Rp3465
sg316
g0
(g16
g17
(g148
g316
tp3466
tp3467
Rp3468
sg323
g0
(g16
g17
(g148
g323
tp3469
tp3470
Rp3471
sg330
g0
(g16
g17
(g148
g330
tp3472
tp3473
Rp3474
ssg71
(dp3475
g169
g0
(g16
g17
(g71
g169
tp3476
tp3477
Rp3478
sg36
g0
(g16
g17
(g71
g36
tp3479
tp3480
Rp3481
sg281
g0
(g16
g17
(g71
g281
tp3482
tp3483
Rp3484
sg442
g0
(g16
g17
(g71
g442
tp3485
tp3486
Rp3487
sg29
g0
(g16
g17
(g71
g29
tp3488
tp3489
Rp3490
sg302
g0
(g16
g17
(g71
g302
tp3491
tp3492
Rp3493
sg295
g0
(g16
g17
(g71
g295
tp3494
tp3495
Rp3496
sg141
g0
(g16
g17
(g71
g141
tp3497
tp3498
Rp3499
sg50
g0
(g16
g17
(g71
g50
tp3500
tp3501
Rp3502
sg246
g0
(g16
g17
(g71
g246
tp3503
tp3504
Rp3505
sg106
g0
(g16
g17
(g71
g106
tp3506
tp3507
Rp3508
sg113
g0
(g16
g17
(g71
g113
tp3509
tp3510
Rp3511
sg267
g0
(g16
g17
(g71
g267
tp3512
tp3513
Rp3514
ssg78
(dp3515
g13
g0
(g16
g17
(g78
g13
tp3516
tp3517
Rp3518
sg7
g0
(g16
g17
(g78
g7
tp3519
tp3520
Rp3521
sg22
g0
(g16
g17
(g78
g22
tp3522
tp3523
Rp3524
sg442
g0
(g16
g17
(g78
g442
tp3525
tp3526
Rp3527
sg29
g0
(g16
g17
(g78
g29
tp3528
tp3529
Rp3530
sg367
g0
(g16
g17
(g78
g367
tp3531
tp3532
Rp3533
sg50
g0
(g16
g17
(g78
g50
tp3534
tp3535
Rp3536
sg57
g0
(g16
g17
(g78
g57
tp3537
tp3538
Rp3539
sg64
g0
(g16
g17
(g78
g64
tp3540
tp3541
Rp3542
sg357
g0
(g16
g17
(g78
g357
tp3543
tp3544
Rp3545
sg85
g0
(g16
g17
(g78
g85
tp3546
tp3547
Rp3548
sg92
g0
(g16
g17
(g78
g92
tp3549
tp3550
Rp3551
sg99
g0
(g16
g17
(g78
g99
tp3552
tp3553
Rp3554
sg106
g0
(g16
g17
(g78
g106
tp3555
tp3556
Rp3557
sg71
g0
(g16
g17
(g78
g71
tp3558
tp3559
Rp3560
sg113
g0
(g16
g17
(g78
g113
tp3561
tp3562
Rp3563
sg120
g0
(g16
g17
(g78
g120
tp3564
tp3565
Rp3566
sg127
g0
(g16
g17
(g78
g127
tp3567
tp3568
Rp3569
sg134
g0
(g16
g17
(g78
g134
tp3570
tp3571
Rp3572
sg141
g0
(g16
g17
(g78
g141
tp3573
tp3574
Rp3575
sg148
g0
(g16
g17
(g78
g148
tp3576
tp3577
Rp3578
sg155
g0
(g16
g17
(g78
g155
tp3579
tp3580
Rp3581
sg162
g0
(g16
g17
(g78
g162
tp3582
tp3583
Rp3584
sg169
g0
(g16
g17
(g78
g169
tp3585
tp3586
Rp3587
sg176
g0
(g16
g17
(g78
g176
tp3588
tp3589
Rp3590
sg190
g0
(g16
g17
(g78
g190
tp3591
tp3592
Rp3593
sg204
g0
(g16
g17
(g78
g204
tp3594
tp3595
Rp3596
sg211
g0
(g16
g17
(g78
g211
tp3597
tp3598
Rp3599
sg218
g0
(g16
g17
(g78
g218
tp3600
tp3601
Rp3602
sg403
g0
(g16
g17
(g78
g403
tp3603
tp3604
Rp3605
sg43
g0
(g16
g17
(g78
g43
tp3606
tp3607
Rp3608
sg232
g0
(g16
g17
(g78
g232
tp3609
tp3610
Rp3611
sg239
g0
(g16
g17
(g78
g239
tp3612
tp3613
Rp3614
sg246
g0
(g16
g17
(g78
g246
tp3615
tp3616
Rp3617
sg253
g0
(g16
g17
(g78
g253
tp3618
tp3619
Rp3620
sg260
g0
(g16
g17
(g78
g260
tp3621
tp3622
Rp3623
sg267
g0
(g16
g17
(g78
g267
tp3624
tp3625
Rp3626
sg295
g0
(g16
g17
(g78
g295
tp3627
tp3628
Rp3629
sg281
g0
(g16
g17
(g78
g281
tp3630
tp3631
Rp3632
sg288
g0
(g16
g17
(g78
g288
tp3633
tp3634
Rp3635
sg302
g0
(g16
g17
(g78
g302
tp3636
tp3637
Rp3638
sg309
g0
(g16
g17
(g78
g309
tp3639
tp3640
Rp3641
sg426
g0
(g16
g17
(g78
g426
tp3642
tp3643
Rp3644
sg225
g0
(g16
g17
(g78
g225
tp3645
tp3646
Rp3647
sg316
g0
(g16
g17
(g78
g316
tp3648
tp3649
Rp3650
sg323
g0
(g16
g17
(g78
g323
tp3651
tp3652
Rp3653
sg330
g0
(g16
g17
(g78
g330
tp3654
tp3655
Rp3656
ssg442
(dp3657
g169
g0
(g16
g17
(g442
g169
tp3658
tp3659
Rp3660
sg71
g0
(g16
g17
(g442
g71
tp3661
tp3662
Rp3663
sg281
g0
(g16
g17
(g442
g281
tp3664
tp3665
Rp3666
sg29
g0
(g16
g17
(g442
g29
tp3667
tp3668
Rp3669
sg302
g0
(g16
g17
(g442
g302
tp3670
tp3671
Rp3672
sg295
g0
(g16
g17
(g442
g295
tp3673
tp3674
Rp3675
sg141
g0
(g16
g17
(g442
g141
tp3676
tp3677
Rp3678
sg50
g0
(g16
g17
(g442
g50
tp3679
tp3680
Rp3681
sg246
g0
(g16
g17
(g442
g246
tp3682
tp3683
Rp3684
sg106
g0
(g16
g17
(g442
g106
tp3685
tp3686
Rp3687
sg267
g0
(g16
g17
(g442
g267
tp3688
tp3689
Rp3690
ssg2761
(dp3691
g36
g0
(g16
g17
(g2761
g36
tp3692
tp3693
Rp3694
sg469
g0
(g16
g17
(g2761
g469
tp3695
tp3696
Rp3697
sg113
g0
(g16
g17
(g2761
g113
tp3698
tp3699
Rp3700
sg442
g0
(g16
g17
(g2761
g442
tp3701
tp3702
Rp3703
ssg197
(dp3704
g426
g0
(g16
g17
(g197
g426
tp3705
tp3706
Rp3707
sg2301
g0
(g16
g17
(g197
g2301
tp3708
tp3709
Rp3710
sg2309
g0
(g16
g17
(g197
g2309
tp3711
tp3712
Rp3713
sg183
g0
(g16
g17
(g197
g183
tp3714
tp3715
Rp3716
sg113
g0
(g16
g17
(g197
g113
tp3717
tp3718
Rp3719
ssg603
(dp3720
g43
g0
(g16
g17
(g603
g43
tp3721
tp3722
Rp3723
sg1655
g0
(g16
g17
(g603
g1655
tp3724
tp3725
Rp3726
ssg0
(g4
g5
Ntp3727
Rp3728
(dp3729
g9
S'/wiki/7_Sins'
p3730
sb(dp3731
g479
g0
(g16
g17
(g3728
g479
tp3732
tp3733
Rp3734
sg113
g0
(g16
g17
(g3728
g113
tp3735
tp3736
Rp3737
ssg218
(dp3738
g13
g0
(g16
g17
(g218
g13
tp3739
tp3740
Rp3741
sg7
g0
(g16
g17
(g218
g7
tp3742
tp3743
Rp3744
sg367
g0
(g16
g17
(g218
g367
tp3745
tp3746
Rp3747
sg22
g0
(g16
g17
(g218
g22
tp3748
tp3749
Rp3750
sg442
g0
(g16
g17
(g218
g442
tp3751
tp3752
Rp3753
sg342
g0
(g16
g17
(g218
g342
tp3754
tp3755
Rp3756
sg29
g0
(g16
g17
(g218
g29
tp3757
tp3758
Rp3759
sg36
g0
(g16
g17
(g218
g36
tp3760
tp3761
Rp3762
sg530
g0
(g16
g17
(g218
g530
tp3763
tp3764
Rp3765
sg43
g0
(g16
g17
(g218
g43
tp3766
tp3767
Rp3768
sg246
g0
(g16
g17
(g218
g246
tp3769
tp3770
Rp3771
sg57
g0
(g16
g17
(g218
g57
tp3772
tp3773
Rp3774
sg64
g0
(g16
g17
(g218
g64
tp3775
tp3776
Rp3777
sg71
g0
(g16
g17
(g218
g71
tp3778
tp3779
Rp3780
sg78
g0
(g16
g17
(g218
g78
tp3781
tp3782
Rp3783
sg85
g0
(g16
g17
(g218
g85
tp3784
tp3785
Rp3786
sg92
g0
(g16
g17
(g218
g92
tp3787
tp3788
Rp3789
sg99
g0
(g16
g17
(g218
g99
tp3790
tp3791
Rp3792
sg357
g0
(g16
g17
(g218
g357
tp3793
tp3794
Rp3795
sg106
g0
(g16
g17
(g218
g106
tp3796
tp3797
Rp3798
sg113
g0
(g16
g17
(g218
g113
tp3799
tp3800
Rp3801
sg120
g0
(g16
g17
(g218
g120
tp3802
tp3803
Rp3804
sg127
g0
(g16
g17
(g218
g127
tp3805
tp3806
Rp3807
sg134
g0
(g16
g17
(g218
g134
tp3808
tp3809
Rp3810
sg141
g0
(g16
g17
(g218
g141
tp3811
tp3812
Rp3813
sg148
g0
(g16
g17
(g218
g148
tp3814
tp3815
Rp3816
sg155
g0
(g16
g17
(g218
g155
tp3817
tp3818
Rp3819
sg162
g0
(g16
g17
(g218
g162
tp3820
tp3821
Rp3822
sg169
g0
(g16
g17
(g218
g169
tp3823
tp3824
Rp3825
sg176
g0
(g16
g17
(g218
g176
tp3826
tp3827
Rp3828
sg190
g0
(g16
g17
(g218
g190
tp3829
tp3830
Rp3831
sg603
g0
(g16
g17
(g218
g603
tp3832
tp3833
Rp3834
sg204
g0
(g16
g17
(g218
g204
tp3835
tp3836
Rp3837
sg211
g0
(g16
g17
(g218
g211
tp3838
tp3839
Rp3840
sg330
g0
(g16
g17
(g218
g330
tp3841
tp3842
Rp3843
sg403
g0
(g16
g17
(g218
g403
tp3844
tp3845
Rp3846
sg232
g0
(g16
g17
(g218
g232
tp3847
tp3848
Rp3849
sg50
g0
(g16
g17
(g218
g50
tp3850
tp3851
Rp3852
sg239
g0
(g16
g17
(g218
g239
tp3853
tp3854
Rp3855
sg253
g0
(g16
g17
(g218
g253
tp3856
tp3857
Rp3858
sg260
g0
(g16
g17
(g218
g260
tp3859
tp3860
Rp3861
sg295
g0
(g16
g17
(g218
g295
tp3862
tp3863
Rp3864
sg281
g0
(g16
g17
(g218
g281
tp3865
tp3866
Rp3867
sg288
g0
(g16
g17
(g218
g288
tp3868
tp3869
Rp3870
sg302
g0
(g16
g17
(g218
g302
tp3871
tp3872
Rp3873
sg309
g0
(g16
g17
(g218
g309
tp3874
tp3875
Rp3876
sg426
g0
(g16
g17
(g218
g426
tp3877
tp3878
Rp3879
sg225
g0
(g16
g17
(g218
g225
tp3880
tp3881
Rp3882
sg316
g0
(g16
g17
(g218
g316
tp3883
tp3884
Rp3885
sg323
g0
(g16
g17
(g218
g323
tp3886
tp3887
Rp3888
sg267
g0
(g16
g17
(g218
g267
tp3889
tp3890
Rp3891
ssg403
(dp3892
g29
g0
(g16
g17
(g403
g29
tp3893
tp3894
Rp3895
ssg155
(dp3896
g426
g0
(g16
g17
(g155
g426
tp3897
tp3898
Rp3899
sg756
g0
(g16
g17
(g155
g756
tp3900
tp3901
Rp3902
ssg239
(dp3903
g13
g0
(g16
g17
(g239
g13
tp3904
tp3905
Rp3906
sg7
g0
(g16
g17
(g239
g7
tp3907
tp3908
Rp3909
sg511
g0
(g16
g17
(g239
g511
tp3910
tp3911
Rp3912
sg22
g0
(g16
g17
(g239
g22
tp3913
tp3914
Rp3915
sg442
g0
(g16
g17
(g239
g442
tp3916
tp3917
Rp3918
sg29
g0
(g16
g17
(g239
g29
tp3919
tp3920
Rp3921
sg36
g0
(g16
g17
(g239
g36
tp3922
tp3923
Rp3924
sg367
g0
(g16
g17
(g239
g367
tp3925
tp3926
Rp3927
sg50
g0
(g16
g17
(g239
g50
tp3928
tp3929
Rp3930
sg57
g0
(g16
g17
(g239
g57
tp3931
tp3932
Rp3933
sg64
g0
(g16
g17
(g239
g64
tp3934
tp3935
Rp3936
sg71
g0
(g16
g17
(g239
g71
tp3937
tp3938
Rp3939
sg78
g0
(g16
g17
(g239
g78
tp3940
tp3941
Rp3942
sg85
g0
(g16
g17
(g239
g85
tp3943
tp3944
Rp3945
sg92
g0
(g16
g17
(g239
g92
tp3946
tp3947
Rp3948
sg99
g0
(g16
g17
(g239
g99
tp3949
tp3950
Rp3951
sg357
g0
(g16
g17
(g239
g357
tp3952
tp3953
Rp3954
sg106
g0
(g16
g17
(g239
g106
tp3955
tp3956
Rp3957
sg113
g0
(g16
g17
(g239
g113
tp3958
tp3959
Rp3960
sg120
g0
(g16
g17
(g239
g120
tp3961
tp3962
Rp3963
sg127
g0
(g16
g17
(g239
g127
tp3964
tp3965
Rp3966
sg134
g0
(g16
g17
(g239
g134
tp3967
tp3968
Rp3969
sg141
g0
(g16
g17
(g239
g141
tp3970
tp3971
Rp3972
sg148
g0
(g16
g17
(g239
g148
tp3973
tp3974
Rp3975
sg162
g0
(g16
g17
(g239
g162
tp3976
tp3977
Rp3978
sg169
g0
(g16
g17
(g239
g169
tp3979
tp3980
Rp3981
sg176
g0
(g16
g17
(g239
g176
tp3982
tp3983
Rp3984
sg190
g0
(g16
g17
(g239
g190
tp3985
tp3986
Rp3987
sg204
g0
(g16
g17
(g239
g204
tp3988
tp3989
Rp3990
sg211
g0
(g16
g17
(g239
g211
tp3991
tp3992
Rp3993
sg218
g0
(g16
g17
(g239
g218
tp3994
tp3995
Rp3996
sg225
g0
(g16
g17
(g239
g225
tp3997
tp3998
Rp3999
sg43
g0
(g16
g17
(g239
g43
tp4000
tp4001
Rp4002
sg232
g0
(g16
g17
(g239
g232
tp4003
tp4004
Rp4005
sg530
g0
(g16
g17
(g239
g530
tp4006
tp4007
Rp4008
sg246
g0
(g16
g17
(g239
g246
tp4009
tp4010
Rp4011
sg253
g0
(g16
g17
(g239
g253
tp4012
tp4013
Rp4014
sg260
g0
(g16
g17
(g239
g260
tp4015
tp4016
Rp4017
sg267
g0
(g16
g17
(g239
g267
tp4018
tp4019
Rp4020
sg295
g0
(g16
g17
(g239
g295
tp4021
tp4022
Rp4023
sg281
g0
(g16
g17
(g239
g281
tp4024
tp4025
Rp4026
sg288
g0
(g16
g17
(g239
g288
tp4027
tp4028
Rp4029
sg302
g0
(g16
g17
(g239
g302
tp4030
tp4031
Rp4032
sg652
g0
(g16
g17
(g239
g652
tp4033
tp4034
Rp4035
sg309
g0
(g16
g17
(g239
g309
tp4036
tp4037
Rp4038
sg426
g0
(g16
g17
(g239
g426
tp4039
tp4040
Rp4041
sg316
g0
(g16
g17
(g239
g316
tp4042
tp4043
Rp4044
sg323
g0
(g16
g17
(g239
g323
tp4045
tp4046
Rp4047
sg330
g0
(g16
g17
(g239
g330
tp4048
tp4049
Rp4050
ssg85
(dp4051
g13
g0
(g16
g17
(g85
g13
tp4052
tp4053
Rp4054
sg7
g0
(g16
g17
(g85
g7
tp4055
tp4056
Rp4057
sg1364
g0
(g16
g17
(g85
g1364
tp4058
tp4059
Rp4060
sg22
g0
(g16
g17
(g85
g22
tp4061
tp4062
Rp4063
sg442
g0
(g16
g17
(g85
g442
tp4064
tp4065
Rp4066
sg29
g0
(g16
g17
(g85
g29
tp4067
tp4068
Rp4069
sg36
g0
(g16
g17
(g85
g36
tp4070
tp4071
Rp4072
sg367
g0
(g16
g17
(g85
g367
tp4073
tp4074
Rp4075
sg50
g0
(g16
g17
(g85
g50
tp4076
tp4077
Rp4078
sg57
g0
(g16
g17
(g85
g57
tp4079
tp4080
Rp4081
sg64
g0
(g16
g17
(g85
g64
tp4082
tp4083
Rp4084
sg71
g0
(g16
g17
(g85
g71
tp4085
tp4086
Rp4087
sg78
g0
(g16
g17
(g85
g78
tp4088
tp4089
Rp4090
sg92
g0
(g16
g17
(g85
g92
tp4091
tp4092
Rp4093
sg99
g0
(g16
g17
(g85
g99
tp4094
tp4095
Rp4096
sg357
g0
(g16
g17
(g85
g357
tp4097
tp4098
Rp4099
sg106
g0
(g16
g17
(g85
g106
tp4100
tp4101
Rp4102
sg113
g0
(g16
g17
(g85
g113
tp4103
tp4104
Rp4105
sg120
g0
(g16
g17
(g85
g120
tp4106
tp4107
Rp4108
sg127
g0
(g16
g17
(g85
g127
tp4109
tp4110
Rp4111
sg134
g0
(g16
g17
(g85
g134
tp4112
tp4113
Rp4114
sg141
g0
(g16
g17
(g85
g141
tp4115
tp4116
Rp4117
sg148
g0
(g16
g17
(g85
g148
tp4118
tp4119
Rp4120
sg155
g0
(g16
g17
(g85
g155
tp4121
tp4122
Rp4123
sg162
g0
(g16
g17
(g85
g162
tp4124
tp4125
Rp4126
sg169
g0
(g16
g17
(g85
g169
tp4127
tp4128
Rp4129
sg176
g0
(g16
g17
(g85
g176
tp4130
tp4131
Rp4132
sg190
g0
(g16
g17
(g85
g190
tp4133
tp4134
Rp4135
sg603
g0
(g16
g17
(g85
g603
tp4136
tp4137
Rp4138
sg204
g0
(g16
g17
(g85
g204
tp4139
tp4140
Rp4141
sg211
g0
(g16
g17
(g85
g211
tp4142
tp4143
Rp4144
sg218
g0
(g16
g17
(g85
g218
tp4145
tp4146
Rp4147
sg403
g0
(g16
g17
(g85
g403
tp4148
tp4149
Rp4150
sg43
g0
(g16
g17
(g85
g43
tp4151
tp4152
Rp4153
sg232
g0
(g16
g17
(g85
g232
tp4154
tp4155
Rp4156
sg239
g0
(g16
g17
(g85
g239
tp4157
tp4158
Rp4159
sg246
g0
(g16
g17
(g85
g246
tp4160
tp4161
Rp4162
sg253
g0
(g16
g17
(g85
g253
tp4163
tp4164
Rp4165
sg260
g0
(g16
g17
(g85
g260
tp4166
tp4167
Rp4168
sg267
g0
(g16
g17
(g85
g267
tp4169
tp4170
Rp4171
sg295
g0
(g16
g17
(g85
g295
tp4172
tp4173
Rp4174
sg281
g0
(g16
g17
(g85
g281
tp4175
tp4176
Rp4177
sg288
g0
(g16
g17
(g85
g288
tp4178
tp4179
Rp4180
sg302
g0
(g16
g17
(g85
g302
tp4181
tp4182
Rp4183
sg309
g0
(g16
g17
(g85
g309
tp4184
tp4185
Rp4186
sg426
g0
(g16
g17
(g85
g426
tp4187
tp4188
Rp4189
sg225
g0
(g16
g17
(g85
g225
tp4190
tp4191
Rp4192
sg316
g0
(g16
g17
(g85
g316
tp4193
tp4194
Rp4195
sg323
g0
(g16
g17
(g85
g323
tp4196
tp4197
Rp4198
sg330
g0
(g16
g17
(g85
g330
tp4199
tp4200
Rp4201
ssg0
(g4
g5
Ntp4202
Rp4203
(dp4204
g9
S'/w/index.php?title=Rondomedia&action=edit&redlink=1'
p4205
sb(dp4206
sg494
(dp4207
g489
g0
(g16
g17
(g494
g489
tp4208
tp4209
Rp4210
ssg260
(dp4211
g13
g0
(g16
g17
(g260
g13
tp4212
tp4213
Rp4214
sg7
g0
(g16
g17
(g260
g7
tp4215
tp4216
Rp4217
sg22
g0
(g16
g17
(g260
g22
tp4218
tp4219
Rp4220
sg442
g0
(g16
g17
(g260
g442
tp4221
tp4222
Rp4223
sg29
g0
(g16
g17
(g260
g29
tp4224
tp4225
Rp4226
sg479
g0
(g16
g17
(g260
g479
tp4227
tp4228
Rp4229
sg530
g0
(g16
g17
(g260
g530
tp4230
tp4231
Rp4232
sg43
g0
(g16
g17
(g260
g43
tp4233
tp4234
Rp4235
sg50
g0
(g16
g17
(g260
g50
tp4236
tp4237
Rp4238
sg57
g0
(g16
g17
(g260
g57
tp4239
tp4240
Rp4241
sg64
g0
(g16
g17
(g260
g64
tp4242
tp4243
Rp4244
sg71
g0
(g16
g17
(g260
g71
tp4245
tp4246
Rp4247
sg78
g0
(g16
g17
(g260
g78
tp4248
tp4249
Rp4250
sg85
g0
(g16
g17
(g260
g85
tp4251
tp4252
Rp4253
sg92
g0
(g16
g17
(g260
g92
tp4254
tp4255
Rp4256
sg99
g0
(g16
g17
(g260
g99
tp4257
tp4258
Rp4259
sg357
g0
(g16
g17
(g260
g357
tp4260
tp4261
Rp4262
sg106
g0
(g16
g17
(g260
g106
tp4263
tp4264
Rp4265
sg113
g0
(g16
g17
(g260
g113
tp4266
tp4267
Rp4268
sg120
g0
(g16
g17
(g260
g120
tp4269
tp4270
Rp4271
sg127
g0
(g16
g17
(g260
g127
tp4272
tp4273
Rp4274
sg134
g0
(g16
g17
(g260
g134
tp4275
tp4276
Rp4277
sg141
g0
(g16
g17
(g260
g141
tp4278
tp4279
Rp4280
sg148
g0
(g16
g17
(g260
g148
tp4281
tp4282
Rp4283
sg155
g0
(g16
g17
(g260
g155
tp4284
tp4285
Rp4286
sg162
g0
(g16
g17
(g260
g162
tp4287
tp4288
Rp4289
sg169
g0
(g16
g17
(g260
g169
tp4290
tp4291
Rp4292
sg176
g0
(g16
g17
(g260
g176
tp4293
tp4294
Rp4295
sg603
g0
(g16
g17
(g260
g603
tp4296
tp4297
Rp4298
sg183
g0
(g16
g17
(g260
g183
tp4299
tp4300
Rp4301
sg190
g0
(g16
g17
(g260
g190
tp4302
tp4303
Rp4304
sg197
g0
(g16
g17
(g260
g197
tp4305
tp4306
Rp4307
sg204
g0
(g16
g17
(g260
g204
tp4308
tp4309
Rp4310
sg211
g0
(g16
g17
(g260
g211
tp4311
tp4312
Rp4313
sg218
g0
(g16
g17
(g260
g218
tp4314
tp4315
Rp4316
sg225
g0
(g16
g17
(g260
g225
tp4317
tp4318
Rp4319
sg232
g0
(g16
g17
(g260
g232
tp4320
tp4321
Rp4322
sg239
g0
(g16
g17
(g260
g239
tp4323
tp4324
Rp4325
sg246
g0
(g16
g17
(g260
g246
tp4326
tp4327
Rp4328
sg253
g0
(g16
g17
(g260
g253
tp4329
tp4330
Rp4331
sg267
g0
(g16
g17
(g260
g267
tp4332
tp4333
Rp4334
sg295
g0
(g16
g17
(g260
g295
tp4335
tp4336
Rp4337
sg281
g0
(g16
g17
(g260
g281
tp4338
tp4339
Rp4340
sg288
g0
(g16
g17
(g260
g288
tp4341
tp4342
Rp4343
sg302
g0
(g16
g17
(g260
g302
tp4344
tp4345
Rp4346
sg652
g0
(g16
g17
(g260
g652
tp4347
tp4348
Rp4349
sg309
g0
(g16
g17
(g260
g309
tp4350
tp4351
Rp4352
sg426
g0
(g16
g17
(g260
g426
tp4353
tp4354
Rp4355
sg316
g0
(g16
g17
(g260
g316
tp4356
tp4357
Rp4358
sg323
g0
(g16
g17
(g260
g323
tp4359
tp4360
Rp4361
sg330
g0
(g16
g17
(g260
g330
tp4362
tp4363
Rp4364
ssg295
(dp4365
g246
g0
(g16
g17
(g295
g246
tp4366
tp4367
Rp4368
sg169
g0
(g16
g17
(g295
g169
tp4369
tp4370
Rp4371
sg71
g0
(g16
g17
(g295
g71
tp4372
tp4373
Rp4374
sg442
g0
(g16
g17
(g295
g442
tp4375
tp4376
Rp4377
sg29
g0
(g16
g17
(g295
g29
tp4378
tp4379
Rp4380
sg302
g0
(g16
g17
(g295
g302
tp4381
tp4382
Rp4383
sg141
g0
(g16
g17
(g295
g141
tp4384
tp4385
Rp4386
sg281
g0
(g16
g17
(g295
g281
tp4387
tp4388
Rp4389
sg43
g0
(g16
g17
(g295
g43
tp4390
tp4391
Rp4392
sg50
g0
(g16
g17
(g295
g50
tp4393
tp4394
Rp4395
sg106
g0
(g16
g17
(g295
g106
tp4396
tp4397
Rp4398
sg113
g0
(g16
g17
(g295
g113
tp4399
tp4400
Rp4401
sg267
g0
(g16
g17
(g295
g267
tp4402
tp4403
Rp4404
ssg281
(dp4405
g169
g0
(g16
g17
(g281
g169
tp4406
tp4407
Rp4408
sg71
g0
(g16
g17
(g281
g71
tp4409
tp4410
Rp4411
sg267
g0
(g16
g17
(g281
g267
tp4412
tp4413
Rp4414
sg442
g0
(g16
g17
(g281
g442
tp4415
tp4416
Rp4417
sg29
g0
(g16
g17
(g281
g29
tp4418
tp4419
Rp4420
sg302
g0
(g16
g17
(g281
g302
tp4421
tp4422
Rp4423
sg295
g0
(g16
g17
(g281
g295
tp4424
tp4425
Rp4426
sg141
g0
(g16
g17
(g281
g141
tp4427
tp4428
Rp4429
sg246
g0
(g16
g17
(g281
g246
tp4430
tp4431
Rp4432
sg50
g0
(g16
g17
(g281
g50
tp4433
tp4434
Rp4435
sg106
g0
(g16
g17
(g281
g106
tp4436
tp4437
Rp4438
sg113
g0
(g16
g17
(g281
g113
tp4439
tp4440
Rp4441
ssg372
(dp4442
g274
g0
(g16
g17
(g372
g274
tp4443
tp4444
Rp4445
sg1058
g0
(g16
g17
(g372
g1058
tp4446
tp4447
Rp4448
sg367
g0
(g16
g17
(g372
g367
tp4449
tp4450
Rp4451
sg113
g0
(g16
g17
(g372
g113
tp4452
tp4453
Rp4454
ssg323
(dp4455
g13
g0
(g16
g17
(g323
g13
tp4456
tp4457
Rp4458
sg7
g0
(g16
g17
(g323
g7
tp4459
tp4460
Rp4461
sg22
g0
(g16
g17
(g323
g22
tp4462
tp4463
Rp4464
sg442
g0
(g16
g17
(g323
g442
tp4465
tp4466
Rp4467
sg29
g0
(g16
g17
(g323
g29
tp4468
tp4469
Rp4470
sg530
g0
(g16
g17
(g323
g530
tp4471
tp4472
Rp4473
sg43
g0
(g16
g17
(g323
g43
tp4474
tp4475
Rp4476
sg50
g0
(g16
g17
(g323
g50
tp4477
tp4478
Rp4479
sg57
g0
(g16
g17
(g323
g57
tp4480
tp4481
Rp4482
sg64
g0
(g16
g17
(g323
g64
tp4483
tp4484
Rp4485
sg71
g0
(g16
g17
(g323
g71
tp4486
tp4487
Rp4488
sg78
g0
(g16
g17
(g323
g78
tp4489
tp4490
Rp4491
sg85
g0
(g16
g17
(g323
g85
tp4492
tp4493
Rp4494
sg92
g0
(g16
g17
(g323
g92
tp4495
tp4496
Rp4497
sg99
g0
(g16
g17
(g323
g99
tp4498
tp4499
Rp4500
sg357
g0
(g16
g17
(g323
g357
tp4501
tp4502
Rp4503
sg106
g0
(g16
g17
(g323
g106
tp4504
tp4505
Rp4506
sg113
g0
(g16
g17
(g323
g113
tp4507
tp4508
Rp4509
sg120
g0
(g16
g17
(g323
g120
tp4510
tp4511
Rp4512
sg127
g0
(g16
g17
(g323
g127
tp4513
tp4514
Rp4515
sg134
g0
(g16
g17
(g323
g134
tp4516
tp4517
Rp4518
sg141
g0
(g16
g17
(g323
g141
tp4519
tp4520
Rp4521
sg148
g0
(g16
g17
(g323
g148
tp4522
tp4523
Rp4524
sg162
g0
(g16
g17
(g323
g162
tp4525
tp4526
Rp4527
sg169
g0
(g16
g17
(g323
g169
tp4528
tp4529
Rp4530
sg176
g0
(g16
g17
(g323
g176
tp4531
tp4532
Rp4533
sg190
g0
(g16
g17
(g323
g190
tp4534
tp4535
Rp4536
sg211
g0
(g16
g17
(g323
g211
tp4537
tp4538
Rp4539
sg218
g0
(g16
g17
(g323
g218
tp4540
tp4541
Rp4542
sg225
g0
(g16
g17
(g323
g225
tp4543
tp4544
Rp4545
sg232
g0
(g16
g17
(g323
g232
tp4546
tp4547
Rp4548
sg239
g0
(g16
g17
(g323
g239
tp4549
tp4550
Rp4551
sg246
g0
(g16
g17
(g323
g246
tp4552
tp4553
Rp4554
sg253
g0
(g16
g17
(g323
g253
tp4555
tp4556
Rp4557
sg260
g0
(g16
g17
(g323
g260
tp4558
tp4559
Rp4560
sg267
g0
(g16
g17
(g323
g267
tp4561
tp4562
Rp4563
sg295
g0
(g16
g17
(g323
g295
tp4564
tp4565
Rp4566
sg281
g0
(g16
g17
(g323
g281
tp4567
tp4568
Rp4569
sg288
g0
(g16
g17
(g323
g288
tp4570
tp4571
Rp4572
sg302
g0
(g16
g17
(g323
g302
tp4573
tp4574
Rp4575
sg309
g0
(g16
g17
(g323
g309
tp4576
tp4577
Rp4578
sg316
g0
(g16
g17
(g323
g316
tp4579
tp4580
Rp4581
sg204
g0
(g16
g17
(g323
g204
tp4582
tp4583
Rp4584
sg330
g0
(g16
g17
(g323
g330
tp4585
tp4586
Rp4587
ssg426
(dp4588
g155
g0
(g16
g17
(g426
g155
tp4589
tp4590
Rp4591
sg36
g0
(g16
g17
(g426
g36
tp4592
tp4593
Rp4594
ssg141
(dp4595
g246
g0
(g16
g17
(g141
g246
tp4596
tp4597
Rp4598
sg169
g0
(g16
g17
(g141
g169
tp4599
tp4600
Rp4601
sg71
g0
(g16
g17
(g141
g71
tp4602
tp4603
Rp4604
sg36
g0
(g16
g17
(g141
g36
tp4605
tp4606
Rp4607
sg442
g0
(g16
g17
(g141
g442
tp4608
tp4609
Rp4610
sg426
g0
(g16
g17
(g141
g426
tp4611
tp4612
Rp4613
sg29
g0
(g16
g17
(g141
g29
tp4614
tp4615
Rp4616
sg302
g0
(g16
g17
(g141
g302
tp4617
tp4618
Rp4619
sg295
g0
(g16
g17
(g141
g295
tp4620
tp4621
Rp4622
sg267
g0
(g16
g17
(g141
g267
tp4623
tp4624
Rp4625
sg281
g0
(g16
g17
(g141
g281
tp4626
tp4627
Rp4628
sg50
g0
(g16
g17
(g141
g50
tp4629
tp4630
Rp4631
sg106
g0
(g16
g17
(g141
g106
tp4632
tp4633
Rp4634
sg113
g0
(g16
g17
(g141
g113
tp4635
tp4636
Rp4637
ssg316
(dp4638
g13
g0
(g16
g17
(g316
g13
tp4639
tp4640
Rp4641
sg7
g0
(g16
g17
(g316
g7
tp4642
tp4643
Rp4644
sg511
g0
(g16
g17
(g316
g511
tp4645
tp4646
Rp4647
sg367
g0
(g16
g17
(g316
g367
tp4648
tp4649
Rp4650
sg22
g0
(g16
g17
(g316
g22
tp4651
tp4652
Rp4653
sg442
g0
(g16
g17
(g316
g442
tp4654
tp4655
Rp4656
sg29
g0
(g16
g17
(g316
g29
tp4657
tp4658
Rp4659
sg479
g0
(g16
g17
(g316
g479
tp4660
tp4661
Rp4662
sg43
g0
(g16
g17
(g316
g43
tp4663
tp4664
Rp4665
sg246
g0
(g16
g17
(g316
g246
tp4666
tp4667
Rp4668
sg57
g0
(g16
g17
(g316
g57
tp4669
tp4670
Rp4671
sg64
g0
(g16
g17
(g316
g64
tp4672
tp4673
Rp4674
sg71
g0
(g16
g17
(g316
g71
tp4675
tp4676
Rp4677
sg78
g0
(g16
g17
(g316
g78
tp4678
tp4679
Rp4680
sg85
g0
(g16
g17
(g316
g85
tp4681
tp4682
Rp4683
sg92
g0
(g16
g17
(g316
g92
tp4684
tp4685
Rp4686
sg99
g0
(g16
g17
(g316
g99
tp4687
tp4688
Rp4689
sg357
g0
(g16
g17
(g316
g357
tp4690
tp4691
Rp4692
sg106
g0
(g16
g17
(g316
g106
tp4693
tp4694
Rp4695
sg113
g0
(g16
g17
(g316
g113
tp4696
tp4697
Rp4698
sg120
g0
(g16
g17
(g316
g120
tp4699
tp4700
Rp4701
sg127
g0
(g16
g17
(g316
g127
tp4702
tp4703
Rp4704
sg134
g0
(g16
g17
(g316
g134
tp4705
tp4706
Rp4707
sg141
g0
(g16
g17
(g316
g141
tp4708
tp4709
Rp4710
sg148
g0
(g16
g17
(g316
g148
tp4711
tp4712
Rp4713
sg155
g0
(g16
g17
(g316
g155
tp4714
tp4715
Rp4716
sg162
g0
(g16
g17
(g316
g162
tp4717
tp4718
Rp4719
sg169
g0
(g16
g17
(g316
g169
tp4720
tp4721
Rp4722
sg176
g0
(g16
g17
(g316
g176
tp4723
tp4724
Rp4725
sg183
g0
(g16
g17
(g316
g183
tp4726
tp4727
Rp4728
sg735
g0
(g16
g17
(g316
g735
tp4729
tp4730
Rp4731
sg190
g0
(g16
g17
(g316
g190
tp4732
tp4733
Rp4734
sg197
g0
(g16
g17
(g316
g197
tp4735
tp4736
Rp4737
sg204
g0
(g16
g17
(g316
g204
tp4738
tp4739
Rp4740
sg211
g0
(g16
g17
(g316
g211
tp4741
tp4742
Rp4743
sg218
g0
(g16
g17
(g316
g218
tp4744
tp4745
Rp4746
sg232
g0
(g16
g17
(g316
g232
tp4747
tp4748
Rp4749
sg50
g0
(g16
g17
(g316
g50
tp4750
tp4751
Rp4752
sg239
g0
(g16
g17
(g316
g239
tp4753
tp4754
Rp4755
sg253
g0
(g16
g17
(g316
g253
tp4756
tp4757
Rp4758
sg260
g0
(g16
g17
(g316
g260
tp4759
tp4760
Rp4761
sg267
g0
(g16
g17
(g316
g267
tp4762
tp4763
Rp4764
sg295
g0
(g16
g17
(g316
g295
tp4765
tp4766
Rp4767
sg281
g0
(g16
g17
(g316
g281
tp4768
tp4769
Rp4770
sg288
g0
(g16
g17
(g316
g288
tp4771
tp4772
Rp4773
sg302
g0
(g16
g17
(g316
g302
tp4774
tp4775
Rp4776
sg652
g0
(g16
g17
(g316
g652
tp4777
tp4778
Rp4779
sg309
g0
(g16
g17
(g316
g309
tp4780
tp4781
Rp4782
sg225
g0
(g16
g17
(g316
g225
tp4783
tp4784
Rp4785
sg323
g0
(g16
g17
(g316
g323
tp4786
tp4787
Rp4788
sg330
g0
(g16
g17
(g316
g330
tp4789
tp4790
Rp4791
ssg0
(g4
g5
Ntp4792
Rp4793
(dp4794
g9
S'/w/index.php?title=Hot_Lava_Games&action=edit&redlink=1'
p4795
sb(dp4796
sg2464
(dp4797
g36
g0
(g16
g17
(g2464
g36
tp4798
tp4799
Rp4800
sg511
g0
(g16
g17
(g2464
g511
tp4801
tp4802
Rp4803
sg2451
g0
(g16
g17
(g2464
g2451
tp4804
tp4805
Rp4806
sg530
g0
(g16
g17
(g2464
g530
tp4807
tp4808
Rp4809
sg113
g0
(g16
g17
(g2464
g113
tp4810
tp4811
Rp4812
ssg330
(dp4813
g13
g0
(g16
g17
(g330
g13
tp4814
tp4815
Rp4816
sg442
g0
(g16
g17
(g330
g442
tp4817
tp4818
Rp4819
sg7
g0
(g16
g17
(g330
g7
tp4820
tp4821
Rp4822
sg22
g0
(g16
g17
(g330
g22
tp4823
tp4824
Rp4825
sg357
g0
(g16
g17
(g330
g357
tp4826
tp4827
Rp4828
sg29
g0
(g16
g17
(g330
g29
tp4829
tp4830
Rp4831
sg36
g0
(g16
g17
(g330
g36
tp4832
tp4833
Rp4834
sg530
g0
(g16
g17
(g330
g530
tp4835
tp4836
Rp4837
sg43
g0
(g16
g17
(g330
g43
tp4838
tp4839
Rp4840
sg246
g0
(g16
g17
(g330
g246
tp4841
tp4842
Rp4843
sg57
g0
(g16
g17
(g330
g57
tp4844
tp4845
Rp4846
sg64
g0
(g16
g17
(g330
g64
tp4847
tp4848
Rp4849
sg71
g0
(g16
g17
(g330
g71
tp4850
tp4851
Rp4852
sg78
g0
(g16
g17
(g330
g78
tp4853
tp4854
Rp4855
sg85
g0
(g16
g17
(g330
g85
tp4856
tp4857
Rp4858
sg92
g0
(g16
g17
(g330
g92
tp4859
tp4860
Rp4861
sg99
g0
(g16
g17
(g330
g99
tp4862
tp4863
Rp4864
sg106
g0
(g16
g17
(g330
g106
tp4865
tp4866
Rp4867
sg113
g0
(g16
g17
(g330
g113
tp4868
tp4869
Rp4870
sg120
g0
(g16
g17
(g330
g120
tp4871
tp4872
Rp4873
sg127
g0
(g16
g17
(g330
g127
tp4874
tp4875
Rp4876
sg134
g0
(g16
g17
(g330
g134
tp4877
tp4878
Rp4879
sg141
g0
(g16
g17
(g330
g141
tp4880
tp4881
Rp4882
sg148
g0
(g16
g17
(g330
g148
tp4883
tp4884
Rp4885
sg162
g0
(g16
g17
(g330
g162
tp4886
tp4887
Rp4888
sg169
g0
(g16
g17
(g330
g169
tp4889
tp4890
Rp4891
sg176
g0
(g16
g17
(g330
g176
tp4892
tp4893
Rp4894
sg183
g0
(g16
g17
(g330
g183
tp4895
tp4896
Rp4897
sg190
g0
(g16
g17
(g330
g190
tp4898
tp4899
Rp4900
sg197
g0
(g16
g17
(g330
g197
tp4901
tp4902
Rp4903
sg204
g0
(g16
g17
(g330
g204
tp4904
tp4905
Rp4906
sg211
g0
(g16
g17
(g330
g211
tp4907
tp4908
Rp4909
sg218
g0
(g16
g17
(g330
g218
tp4910
tp4911
Rp4912
sg225
g0
(g16
g17
(g330
g225
tp4913
tp4914
Rp4915
sg232
g0
(g16
g17
(g330
g232
tp4916
tp4917
Rp4918
sg50
g0
(g16
g17
(g330
g50
tp4919
tp4920
Rp4921
sg239
g0
(g16
g17
(g330
g239
tp4922
tp4923
Rp4924
sg253
g0
(g16
g17
(g330
g253
tp4925
tp4926
Rp4927
sg494
g0
(g16
g17
(g330
g494
tp4928
tp4929
Rp4930
sg260
g0
(g16
g17
(g330
g260
tp4931
tp4932
Rp4933
sg295
g0
(g16
g17
(g330
g295
tp4934
tp4935
Rp4936
sg281
g0
(g16
g17
(g330
g281
tp4937
tp4938
Rp4939
sg288
g0
(g16
g17
(g330
g288
tp4940
tp4941
Rp4942
sg302
g0
(g16
g17
(g330
g302
tp4943
tp4944
Rp4945
sg309
g0
(g16
g17
(g330
g309
tp4946
tp4947
Rp4948
sg426
g0
(g16
g17
(g330
g426
tp4949
tp4950
Rp4951
sg316
g0
(g16
g17
(g330
g316
tp4952
tp4953
Rp4954
sg323
g0
(g16
g17
(g330
g323
tp4955
tp4956
Rp4957
sg267
g0
(g16
g17
(g330
g267
tp4958
tp4959
Rp4960
sstp4961
Rp4962
(dp4963
S'reverse_graph'
p4964
(dp4965
g2056
(dp4966
sg7
(dp4967
g13
g1501
sg22
g1084
sg57
g509
sg64
g3057
sg78
g3521
sg85
g4057
sg92
g2899
sg99
g924
sg120
g3184
sg127
g1223
sg134
g2327
sg148
g3327
sg162
g1335
sg176
g1727
sg190
g782
sg211
g1878
sg218
g3744
sg232
g2499
sg239
g3909
sg253
g2123
sg260
g4217
sg288
g2632
sg316
g4644
sg323
g4461
sg330
g4822
ssg652
(dp4968
g253
g2258
sg260
g4349
sg1655
g1661
sg13
g1630
sg302
g2788
sg316
g4779
sg57
g657
sg239
g4035
sg1666
g2873
ssg379
(dp4969
g384
g751
ssg530
(dp4970
g13
g1516
sg148
g3345
sg64
g3069
sg162
g1353
sg323
g4473
sg511
g2459
sg176
g1742
sg288
g2641
sg190
g800
sg211
g2001
sg2451
g2889
sg330
g4837
sg57
g535
sg218
g3765
sg260
g4232
sg2464
g4809
sg239
g4008
sg253
g2195
ssg113
(dp4971
g13
g1552
sg7
g118
sg337
g350
sg352
g365
sg511
g2462
sg22
g1126
sg71
g3511
sg169
g1717
sg2486
g2492
sg29
g456
sg461
g467
sg396
g2477
sg50
g2108
sg57
g571
sg2464
g4812
sg64
g3096
sg1655
g1664
sg78
g3563
sg85
g4105
sg384
g754
sg92
g2956
sg99
g969
sg106
g715
sg1058
g1070
sg141
g4637
sg120
g3220
sg127
g1259
sg134
g2366
sg742
g1494
sg148
g3384
sg162
g1387
sg2451
g2892
sg176
g1775
sg190
g833
sg197
g3719
sg211
g1929
sg218
g3801
sg489
g502
sg232
g2541
sg239
g3960
sg2056
g2065
sg2761
g3700
sg253
g2171
sg2275
g2284
sg260
g4268
sg267
g2053
sg295
g4401
sg281
g4441
sg372
g4454
sg288
g2674
sg302
g2806
sg756
g769
sg3728
g3737
sg2309
g3311
sg2301
g2307
sg316
g4698
sg323
g4509
sg330
g4870
ssg155
(dp4972
g246
g2820
sg78
g3581
sg127
g1271
sg85
g4123
sg13
g1570
sg426
g4591
sg148
g3399
sg288
g2692
sg211
g1947
sg7
g160
sg218
g3819
sg316
g4716
sg57
g589
sg162
g1356
sg260
g4286
sg50
g2075
sg756
g772
sg253
g2189
ssg253
(dp4973
g13
g1609
sg7
g258
sg22
g1180
sg57
g632
sg64
g3144
sg78
g3620
sg85
g4165
sg92
g3013
sg99
g1023
sg120
g3268
sg127
g1301
sg134
g2408
sg148
g3444
sg162
g1447
sg176
g1826
sg190
g884
sg211
g1986
sg218
g3858
sg232
g2589
sg239
g4014
sg260
g4331
sg288
g2731
sg316
g4758
sg323
g4557
sg330
g4927
ssg489
(dp4974
g494
g4210
ssg469
(dp4975
g461
g474
sg57
g629
sg2761
g3697
sg652
g1077
sg92
g3007
ssg309
(dp4976
g13
g1633
sg7
g314
sg22
g1204
sg57
g660
sg64
g3165
sg78
g3641
sg85
g4186
sg92
g3034
sg99
g1044
sg120
g3289
sg127
g1316
sg134
g2423
sg148
g3465
sg162
g1468
sg176
g1847
sg190
g905
sg211
g2004
sg218
g3876
sg232
g2610
sg239
g4038
sg253
g2261
sg260
g4352
sg288
g2749
sg316
g4782
sg323
g4578
sg330
g4948
ssg225
(dp4977
g13
g1594
sg7
g230
sg22
g1168
sg57
g666
sg64
g3135
sg78
g3647
sg85
g4192
sg92
g2998
sg99
g1011
sg120
g3256
sg127
g1289
sg134
g2399
sg148
g3432
sg162
g1432
sg176
g1853
sg190
g872
sg211
g1974
sg218
g3882
sg232
g2580
sg239
g3999
sg253
g2219
sg260
g4319
sg288
g2716
sg309
g2436
sg316
g4785
sg323
g4545
sg330
g4915
ssg204
(dp4978
g13
g1585
sg7
g209
sg22
g1159
sg57
g611
sg64
g3126
sg78
g3596
sg85
g4141
sg92
g2989
sg99
g1002
sg120
g3247
sg127
g1313
sg134
g2420
sg148
g3420
sg162
g1423
sg176
g1805
sg190
g863
sg211
g1965
sg218
g3837
sg232
g2571
sg239
g3990
sg253
g2207
sg260
g4310
sg288
g2707
sg309
g2439
sg316
g4740
sg323
g4584
sg330
g4906
ssg511
(dp4979
g253
g2126
sg162
g1338
sg2451
g2883
sg190
g785
sg530
g1484
sg316
g4647
sg57
g516
sg2464
g4803
sg239
g3912
ssg148
(dp4980
g13
g1567
sg7
g153
sg22
g1141
sg57
g586
sg64
g3111
sg78
g3578
sg85
g4120
sg92
g2971
sg99
g984
sg120
g3232
sg127
g1268
sg134
g2378
sg162
g1402
sg176
g1790
sg190
g848
sg211
g1944
sg218
g3816
sg232
g2556
sg239
g3975
sg253
g2186
sg260
g4283
sg288
g2689
sg316
g4713
sg323
g4524
sg330
g4885
ssg396
(dp4981
g176
g1730
sg391
g401
ssg57
(dp4982
g13
g1525
sg7
g62
sg22
g1099
sg64
g3075
sg78
g3539
sg85
g4081
sg92
g2926
sg99
g942
sg120
g3196
sg127
g1238
sg134
g2342
sg148
g3354
sg162
g1359
sg176
g1751
sg190
g809
sg211
g1899
sg218
g3774
sg232
g2517
sg239
g3933
sg253
g2147
sg260
g4241
sg288
g2650
sg316
g4671
sg323
g4482
sg330
g4846
ssg71
(dp4983
g13
g1531
sg7
g76
sg22
g1105
sg442
g3663
sg29
g421
sg50
g2078
sg57
g550
sg64
g3063
sg78
g3560
sg85
g4087
sg92
g2935
sg99
g948
sg106
g685
sg141
g4604
sg120
g3202
sg134
g2348
sg148
g3360
sg162
g1405
sg169
g1684
sg176
g1757
sg190
g815
sg211
g1923
sg218
g3780
sg232
g2523
sg239
g3939
sg246
g2823
sg253
g2153
sg260
g4247
sg267
g2026
sg295
g4374
sg281
g4411
sg288
g2638
sg302
g2776
sg316
g4677
sg323
g4488
sg330
g4852
ssg106
(dp4984
g13
g1549
sg7
g111
sg22
g1123
sg442
g3687
sg29
g453
sg50
g2105
sg57
g568
sg64
g3078
sg71
g3508
sg78
g3557
sg85
g4102
sg92
g2953
sg99
g966
sg141
g4634
sg120
g3217
sg127
g1256
sg134
g2363
sg148
g3378
sg162
g1384
sg169
g1714
sg176
g1772
sg190
g830
sg211
g1920
sg218
g3798
sg232
g2538
sg239
g3957
sg246
g2856
sg253
g2168
sg260
g4265
sg267
g2050
sg295
g4398
sg281
g4438
sg288
g2671
sg302
g2803
sg316
g4695
sg323
g4506
sg330
g4867
ssg1666
(dp4985
g2293
g2299
sg1655
g1671
ssg730
(dp4986
g735
g2813
sg742
g1491
ssg442
(dp4987
g13
g1507
sg22
g1087
sg29
g447
sg50
g2081
sg57
g522
sg64
g3054
sg71
g3487
sg78
g3527
sg85
g4066
sg92
g2911
sg99
g930
sg106
g688
sg141
g4610
sg127
g1229
sg134
g2333
sg148
g3336
sg162
g1332
sg469
g2288
sg176
g1778
sg190
g779
sg169
g1690
sg211
g1887
sg218
g3753
sg232
g2505
sg239
g3918
sg2761
g3703
sg246
g2832
sg253
g2132
sg260
g4223
sg267
g2029
sg295
g4377
sg281
g4417
sg288
g2629
sg302
g2797
sg316
g4656
sg323
g4467
sg330
g4819
ssg197
(dp4988
g253
g2204
sg2301
g2320
sg2309
g3320
sg162
g1420
sg148
g3426
sg92
g2986
sg183
g1866
sg7
g202
sg330
g4903
sg22
g1156
sg316
g4737
sg106
g694
sg260
g4307
ssg603
(dp4989
g148
g3417
sg260
g4298
sg1655
g1674
sg99
g999
sg190
g860
sg218
g3834
sg43
g2448
sg57
g608
sg85
g4138
ssg735
(dp4990
g316
g4731
sg742
g1497
sg730
g740
ssg384
(dp4991
g379
g389
ssg372
(dp4992
g1058
g1073
sg367
g377
sg274
g2866
ssg756
(dp4993
g155
g3902
ssg260
(dp4994
g13
g1612
sg7
g265
sg22
g1186
sg57
g635
sg64
g3147
sg78
g3623
sg85
g4168
sg92
g3016
sg99
g1026
sg120
g3271
sg127
g1304
sg134
g2411
sg148
g3447
sg162
g1450
sg176
g1829
sg190
g887
sg211
g1989
sg218
g3861
sg232
g2592
sg239
g4017
sg253
g2237
sg288
g2734
sg316
g4761
sg323
g4560
sg330
g4933
ssg725
(dp4995
sg352
(dp4996
g357
g2484
ssg22
(dp4997
g13
g1504
sg7
g27
sg57
g519
sg64
g3060
sg78
g3524
sg85
g4063
sg92
g2908
sg99
g927
sg120
g3187
sg127
g1226
sg134
g2330
sg148
g3333
sg162
g1341
sg176
g1733
sg190
g788
sg211
g1884
sg218
g3750
sg232
g2502
sg239
g3915
sg253
g2129
sg260
g4220
sg288
g2635
sg316
g4653
sg323
g4464
sg330
g4825
ssg391
(dp4998
g396
g2480
ssg99
(dp4999
g13
g1543
sg7
g104
sg22
g1117
sg57
g565
sg64
g3093
sg78
g3554
sg85
g4096
sg92
g2947
sg120
g3214
sg127
g1253
sg134
g2360
sg148
g3372
sg162
g1381
sg176
g1769
sg190
g827
sg211
g1917
sg218
g3792
sg232
g2535
sg239
g3951
sg253
g2165
sg260
g4259
sg288
g2668
sg316
g4689
sg323
g4500
sg330
g4864
ssg461
(dp5000
g43
g2445
sg469
g2291
ssg479
(dp5001
g253
g2249
sg260
g4229
sg92
g2917
sg3728
g3734
sg316
g4662
sg57
g528
ssg494
(dp5002
g22
g1183
sg330
g4930
sg489
g499
ssg50
(dp5003
g13
g1603
sg7
g55
sg22
g1096
sg442
g3681
sg29
g450
sg2056
g2068
sg57
g544
sg64
g3072
sg71
g3502
sg78
g3536
sg85
g4078
sg92
g2923
sg99
g1017
sg106
g709
sg141
g4631
sg120
g3193
sg127
g1295
sg134
g2339
sg148
g3438
sg162
g1438
sg169
g1711
sg176
g1820
sg190
g806
sg211
g1980
sg218
g3852
sg232
g2583
sg239
g3930
sg246
g2853
sg253
g2144
sg260
g4238
sg267
g2047
sg295
g4395
sg281
g4435
sg288
g2647
sg302
g2800
sg316
g4752
sg323
g4479
sg330
g4921
ssg64
(dp5004
g13
g1528
sg7
g69
sg22
g1102
sg57
g547
sg78
g3542
sg85
g4084
sg92
g2929
sg99
g945
sg120
g3199
sg127
g1241
sg134
g2345
sg148
g3357
sg162
g1362
sg176
g1754
sg190
g812
sg211
g1902
sg218
g3777
sg232
g2520
sg239
g3936
sg253
g2150
sg260
g4244
sg288
g2653
sg316
g4674
sg323
g4485
sg330
g4849
ssg78
(dp5005
g13
g1534
sg7
g83
sg22
g1108
sg57
g556
sg64
g3084
sg85
g4090
sg92
g2938
sg99
g951
sg120
g3205
sg127
g1244
sg134
g2351
sg148
g3363
sg162
g1372
sg176
g1760
sg190
g818
sg211
g1908
sg218
g3783
sg232
g2526
sg239
g3942
sg253
g2156
sg260
g4250
sg288
g2659
sg316
g4680
sg323
g4491
sg330
g4855
ssg85
(dp5006
g13
g1537
sg7
g90
sg22
g1111
sg57
g559
sg64
g3087
sg78
g3548
sg92
g2941
sg99
g954
sg120
g3208
sg127
g1247
sg134
g2354
sg148
g3366
sg162
g1375
sg176
g1763
sg190
g821
sg211
g1911
sg218
g3786
sg232
g2529
sg239
g3945
sg253
g2159
sg260
g4253
sg288
g2662
sg316
g4683
sg323
g4494
sg330
g4858
ssg426
(dp5007
g13
g1636
sg22
g1207
sg29
g431
sg50
g2084
sg57
g663
sg64
g3168
sg78
g3644
sg85
g4189
sg92
g2944
sg99
g1047
sg141
g4613
sg120
g3292
sg155
g3899
sg162
g1471
sg169
g1693
sg176
g1850
sg190
g908
sg197
g3707
sg211
g2007
sg218
g3879
sg232
g2613
sg239
g4041
sg2056
g2062
sg246
g2835
sg253
g2264
sg260
g4355
sg330
g4951
ssg29
(dp5008
g13
g1510
sg7
g34
sg22
g1090
sg442
g3669
sg50
g2087
sg57
g525
sg64
g3066
sg71
g3490
sg78
g3530
sg85
g4069
sg92
g2914
sg99
g960
sg106
g691
sg141
g4616
sg120
g3190
sg127
g1232
sg134
g2336
sg148
g3339
sg162
g1347
sg169
g1696
sg176
g1736
sg190
g794
sg211
g1890
sg218
g3759
sg403
g3895
sg232
g2508
sg239
g3921
sg246
g2844
sg253
g2213
sg260
g4226
sg267
g2032
sg295
g4380
sg281
g4420
sg302
g2785
sg316
g4659
sg323
g4470
sg330
g4831
ssg1058
(dp5009
g274
g2863
sg372
g4448
ssg127
(dp5010
g13
g1558
sg7
g132
sg22
g1132
sg57
g577
sg64
g3102
sg78
g3569
sg85
g4111
sg92
g2962
sg99
g975
sg120
g3223
sg134
g2372
sg148
g3390
sg162
g1393
sg176
g1781
sg190
g839
sg211
g1935
sg218
g3807
sg232
g2547
sg239
g3966
sg253
g2177
sg260
g4274
sg288
g2680
sg316
g4704
sg323
g4515
sg330
g4876
ssg162
(dp5011
g13
g1573
sg7
g167
sg22
g1144
sg57
g592
sg64
g3114
sg78
g3584
sg85
g4126
sg92
g2974
sg99
g987
sg120
g3235
sg127
g1274
sg134
g2381
sg148
g3402
sg176
g1793
sg190
g851
sg211
g1950
sg218
g3822
sg232
g2559
sg239
g3978
sg253
g2192
sg260
g4289
sg288
g2695
sg316
g4719
sg323
g4527
sg330
g4888
ssg134
(dp5012
g13
g1561
sg7
g139
sg22
g1135
sg57
g580
sg64
g3105
sg78
g3572
sg85
g4114
sg92
g2965
sg99
g978
sg120
g3226
sg127
g1265
sg148
g3393
sg162
g1396
sg176
g1784
sg190
g842
sg211
g1938
sg218
g3810
sg232
g2550
sg239
g3969
sg253
g2180
sg260
g4277
sg288
g2683
sg316
g4707
sg323
g4518
sg330
g4879
ssg1647
(dp5013
g92
g2902
ssg1655
(dp5014
g1666
g2876
sg603
g3726
ssg176
(dp5015
g13
g1579
sg7
g181
sg22
g1150
sg57
g598
sg64
g3120
sg78
g3590
sg85
g4132
sg92
g2980
sg99
g993
sg127
g1277
sg134
g2387
sg148
g3408
sg162
g1411
sg120
g3241
sg190
g857
sg211
g1956
sg218
g3828
sg232
g2565
sg239
g3984
sg253
g2198
sg260
g4295
sg288
g2701
sg316
g4725
sg323
g4533
sg330
g4894
ssg742
(dp5016
g730
g747
ssg211
(dp5017
g13
g1588
sg7
g216
sg22
g1162
sg57
g614
sg64
g3129
sg78
g3599
sg85
g4144
sg92
g2992
sg99
g1005
sg120
g3250
sg127
g1283
sg134
g2393
sg148
g3423
sg162
g1426
sg176
g1808
sg190
g866
sg218
g3840
sg232
g2574
sg239
g3993
sg253
g2210
sg260
g4313
sg288
g2710
sg316
g4743
sg323
g4539
sg330
g4909
ssg267
(dp5018
g13
g1615
sg7
g272
sg22
g1189
sg442
g3690
sg29
g459
sg50
g2111
sg57
g638
sg64
g3150
sg71
g3514
sg78
g3626
sg85
g4171
sg92
g3019
sg99
g1029
sg106
g718
sg141
g4625
sg120
g3274
sg302
g2809
sg148
g3450
sg162
g1453
sg169
g1720
sg176
g1832
sg190
g890
sg211
g1992
sg218
g3891
sg232
g2595
sg239
g4020
sg246
g2826
sg253
g2240
sg260
g4334
sg295
g4404
sg281
g4414
sg288
g2737
sg316
g4764
sg323
g4563
sg330
g4960
ssg761
(dp5019
g756
g766
ssg232
(dp5020
g13
g1600
sg7
g237
sg22
g1171
sg57
g623
sg64
g3138
sg78
g3611
sg85
g4156
sg92
g3001
sg99
g1014
sg120
g3259
sg127
g1292
sg134
g2402
sg148
g3435
sg162
g1435
sg176
g1817
sg190
g875
sg211
g1977
sg218
g3849
sg239
g4005
sg253
g2225
sg260
g4322
sg288
g2722
sg316
g4749
sg323
g4548
sg330
g4918
ssg2113
(dp5021
sg169
(dp5022
g13
g1576
sg7
g174
sg22
g1147
sg442
g3660
sg29
g415
sg50
g2072
sg57
g595
sg64
g3117
sg71
g3478
sg78
g3587
sg85
g4129
sg92
g2977
sg99
g990
sg106
g682
sg141
g4601
sg120
g3238
sg134
g2384
sg148
g3405
sg162
g1408
sg176
g1796
sg190
g854
sg211
g1953
sg218
g3825
sg232
g2562
sg239
g3981
sg246
g2817
sg253
g2234
sg260
g4292
sg267
g2020
sg295
g4371
sg281
g4408
sg288
g2698
sg302
g2773
sg316
g4722
sg323
g4530
sg330
g4891
ssg720
(dp5023
sg36
(dp5024
g13
g1513
sg7
g41
sg22
g1093
sg99
g933
sg246
g2829
sg57
g553
sg162
g1350
sg2451
g2880
sg85
g4072
sg426
g4594
sg29
g424
sg141
g4607
sg302
g2779
sg148
g3342
sg71
g3481
sg169
g1687
sg176
g1739
sg190
g797
sg330
g4834
sg239
g3924
sg253
g2138
sg2761
g3694
sg2464
g4800
sg218
g3762
ssg295
(dp5025
g13
g1618
sg7
g300
sg22
g1192
sg442
g3675
sg29
g437
sg50
g2093
sg57
g641
sg64
g3153
sg71
g3496
sg78
g3629
sg85
g4174
sg92
g3022
sg99
g1032
sg106
g697
sg141
g4622
sg120
g3277
sg134
g2414
sg148
g3453
sg162
g1456
sg169
g1702
sg176
g1835
sg190
g893
sg211
g1968
sg218
g3864
sg232
g2598
sg239
g4023
sg246
g2841
sg253
g2243
sg260
g4337
sg267
g2038
sg281
g4426
sg288
g2740
sg302
g2791
sg316
g4767
sg323
g4566
sg330
g4936
ssg302
(dp5026
g13
g1627
sg7
g307
sg22
g1201
sg442
g3672
sg29
g434
sg50
g2090
sg57
g650
sg64
g3162
sg71
g3493
sg78
g3638
sg85
g4183
sg92
g3031
sg99
g1041
sg106
g712
sg141
g4619
sg120
g3286
sg148
g3462
sg162
g1465
sg169
g1699
sg176
g1844
sg190
g902
sg211
g1926
sg218
g3873
sg232
g2607
sg239
g4032
sg246
g2838
sg253
g2255
sg260
g4346
sg267
g2035
sg295
g4383
sg281
g4423
sg288
g2746
sg316
g4776
sg323
g4575
sg330
g4945
ssg2309
(dp5027
g2301
g2314
sg197
g3713
ssg323
(dp5028
g13
g1642
sg7
g328
sg22
g1213
sg57
g672
sg64
g3174
sg78
g3653
sg85
g4198
sg92
g3040
sg99
g1053
sg120
g3298
sg127
g1322
sg134
g2429
sg148
g3471
sg162
g1477
sg176
g1859
sg190
g914
sg211
g2013
sg218
g3888
sg232
g2619
sg239
g4047
sg253
g2270
sg260
g4361
sg288
g2755
sg316
g4788
sg330
g4957
ssg43
(dp5029
g13
g1597
sg7
g48
sg461
g477
sg246
g2859
sg57
g538
sg106
g706
sg78
g3608
sg85
g4153
sg92
g2920
sg99
g936
sg530
g1487
sg148
g3348
sg1655
g1677
sg176
g1745
sg603
g3723
sg295
g4392
sg218
g3768
sg239
g4002
sg253
g2222
sg260
g4235
sg211
g1893
sg288
g2719
sg316
g4665
sg323
g4476
sg330
g4840
ssg13
(dp5030
g7
g20
sg22
g1081
sg57
g506
sg64
g3051
sg78
g3518
sg85
g4054
sg92
g2896
sg99
g921
sg120
g3181
sg127
g1220
sg134
g2324
sg148
g3324
sg162
g1329
sg176
g1724
sg190
g776
sg211
g1875
sg218
g3741
sg232
g2496
sg239
g3906
sg253
g2120
sg260
g4214
sg288
g2626
sg316
g4641
sg323
g4458
sg330
g4816
ssg1364
(dp5031
g211
g1881
sg148
g3330
sg85
g4060
sg2275
g2281
sg162
g1369
ssg2486
(dp5032
sg288
(dp5033
g13
g1624
sg7
g293
sg22
g1198
sg57
g647
sg64
g3159
sg78
g3635
sg85
g4180
sg92
g3028
sg99
g1038
sg120
g3283
sg127
g1310
sg134
g2417
sg148
g3459
sg162
g1462
sg176
g1841
sg190
g899
sg211
g1998
sg218
g3870
sg232
g2604
sg239
g4029
sg253
g2252
sg260
g4343
sg316
g4773
sg323
g4572
sg330
g4942
ssg2293
(dp5034
g148
g3381
ssg367
(dp5035
g78
g3533
sg85
g4075
sg13
g1519
sg92
g2905
sg1058
g1067
sg372
g4451
sg190
g803
sg288
g2644
sg211
g1959
sg218
g3747
sg232
g2511
sg316
g4650
sg239
g3927
sg1647
g1653
sg253
g2141
ssg246
(dp5036
g13
g1522
sg7
g251
sg22
g1177
sg442
g3684
sg29
g412
sg50
g2102
sg57
g541
sg106
g679
sg71
g3505
sg78
g3617
sg85
g4162
sg92
g3010
sg99
g939
sg141
g4598
sg120
g3265
sg127
g1235
sg302
g2770
sg148
g3351
sg162
g1444
sg169
g1681
sg176
g1748
sg190
g881
sg211
g1896
sg218
g3771
sg232
g2514
sg239
g4011
sg253
g2231
sg260
g4328
sg267
g2044
sg295
g4368
sg281
g4432
sg288
g2728
sg316
g4668
sg323
g4554
sg330
g4843
ssg337
(dp5037
g342
g3047
ssg2451
(dp5038
g511
g2456
sg2464
g4806
ssg92
(dp5039
g13
g1540
sg7
g97
sg22
g1114
sg57
g562
sg64
g3090
sg78
g3551
sg85
g4093
sg99
g957
sg120
g3211
sg127
g1250
sg134
g2357
sg148
g3369
sg162
g1378
sg176
g1766
sg190
g824
sg211
g1914
sg218
g3789
sg232
g2532
sg239
g3948
sg253
g2162
sg260
g4256
sg288
g2665
sg316
g4686
sg323
g4497
sg330
g4861
ssg342
(dp5040
g218
g3756
sg337
g347
ssg141
(dp5041
g13
g1564
sg7
g146
sg22
g1138
sg442
g3678
sg29
g440
sg50
g2096
sg57
g583
sg64
g3108
sg71
g3499
sg78
g3575
sg85
g4117
sg92
g2968
sg99
g981
sg106
g700
sg120
g3229
sg134
g2375
sg148
g3396
sg162
g1399
sg169
g1705
sg176
g1787
sg190
g845
sg211
g1941
sg218
g3813
sg232
g2553
sg239
g3972
sg246
g2847
sg253
g2183
sg260
g4280
sg267
g2041
sg295
g4386
sg281
g4429
sg288
g2686
sg302
g2794
sg316
g4710
sg323
g4521
sg330
g4882
ssg3304
(dp5042
sg484
(dp5043
sg357
(dp5044
g13
g1546
sg148
g3375
sg218
g3795
sg323
g4503
sg85
g4099
sg78
g3545
sg92
g2950
sg190
g791
sg288
g2656
sg352
g362
sg211
g1905
sg330
g4828
sg22
g1120
sg316
g4692
sg99
g963
sg260
g4262
sg64
g3081
sg239
g3954
sg162
g1344
ssg120
(dp5045
g13
g1555
sg7
g125
sg22
g1129
sg57
g574
sg64
g3099
sg78
g3566
sg85
g4108
sg92
g2959
sg99
g972
sg127
g1262
sg134
g2369
sg148
g3387
sg162
g1390
sg176
g1799
sg190
g836
sg211
g1932
sg218
g3804
sg232
g2544
sg239
g3963
sg253
g2174
sg260
g4271
sg288
g2677
sg316
g4701
sg323
g4512
sg330
g4873
ssg190
(dp5046
g13
g1582
sg7
g195
sg22
g1153
sg57
g601
sg64
g3123
sg78
g3593
sg85
g4135
sg92
g2983
sg99
g996
sg120
g3244
sg127
g1280
sg134
g2390
sg148
g3414
sg162
g1417
sg176
g1802
sg211
g1962
sg218
g3831
sg232
g2568
sg239
g3987
sg253
g2201
sg260
g4304
sg288
g2704
sg316
g4734
sg323
g4536
sg330
g4900
ssg1868
(dp5047
sg3728
(dp5048
sg218
(dp5049
g13
g1591
sg7
g223
sg22
g1165
sg57
g617
sg64
g3132
sg78
g3602
sg85
g4147
sg92
g2995
sg99
g1008
sg120
g3253
sg127
g1286
sg134
g2396
sg148
g3429
sg162
g1429
sg176
g1811
sg190
g869
sg211
g1971
sg330
g4912
sg232
g2577
sg239
g3996
sg253
g2216
sg260
g4316
sg288
g2713
sg316
g4746
sg323
g4542
ssg316
(dp5050
g13
g1639
sg7
g321
sg22
g1210
sg57
g669
sg64
g3171
sg78
g3650
sg85
g4195
sg92
g3037
sg99
g1050
sg120
g3295
sg127
g1319
sg134
g2426
sg148
g3468
sg162
g1474
sg176
g1856
sg190
g911
sg211
g2010
sg218
g3885
sg232
g2616
sg239
g4044
sg253
g2267
sg260
g4358
sg288
g2752
sg323
g4581
sg330
g4954
ssg2275
(dp5051
sg239
(dp5052
g13
g1606
sg7
g244
sg22
g1174
sg57
g626
sg64
g3141
sg78
g3614
sg85
g4159
sg92
g3004
sg99
g1020
sg120
g3262
sg127
g1298
sg134
g2405
sg148
g3441
sg162
g1441
sg176
g1823
sg190
g878
sg211
g1983
sg218
g3855
sg232
g2586
sg253
g2228
sg260
g4325
sg288
g2725
sg316
g4755
sg323
g4551
sg330
g4924
ssg4203
(dp5053
sg2761
(dp5054
g36
g2766
ssg274
(dp5055
g92
g2932
sg372
g4445
sg7
g279
sg1058
g1064
ssg281
(dp5056
g13
g1621
sg7
g286
sg22
g1195
sg442
g3666
sg29
g418
sg50
g2099
sg57
g644
sg64
g3156
sg1666
g2870
sg78
g3632
sg85
g4177
sg92
g3025
sg99
g1035
sg106
g703
sg71
g3484
sg141
g4628
sg120
g3280
sg127
g1307
sg302
g2782
sg148
g3456
sg162
g1459
sg169
g1708
sg176
g1838
sg190
g896
sg211
g1995
sg218
g3867
sg232
g2601
sg239
g4026
sg246
g2850
sg253
g2246
sg260
g4340
sg267
g2023
sg295
g4389
sg288
g2743
sg316
g4770
sg323
g4569
sg330
g4939
ssg183
(dp5057
g253
g2135
sg2309
g3317
sg260
g4301
sg148
g3411
sg2301
g2317
sg197
g3716
sg330
g4897
sg316
g4728
sg162
g1414
sg7
g188
ssg2301
(dp5058
g2309
g3314
sg197
g3710
ssg403
(dp5059
g78
g3605
sg85
g4150
sg396
g2474
sg176
g1814
sg391
g408
sg218
g3846
sg57
g620
ssg4793
(dp5060
sg2464
(dp5061
g2451
g2886
sg511
g2469
ssg330
(dp5062
g13
g1645
sg7
g335
sg22
g1216
sg57
g675
sg64
g3177
sg78
g3656
sg85
g4201
sg92
g3043
sg99
g1056
sg120
g3301
sg127
g1325
sg134
g2432
sg148
g3474
sg162
g1480
sg176
g1862
sg190
g917
sg211
g2016
sg218
g3843
sg232
g2622
sg239
g4050
sg253
g2273
sg260
g4364
sg288
g2758
sg316
g4791
sg323
g4587
sssb.