ccopy_reg
_reconstructor
p0
(cDirectedGraph
DirectedGraph
p1
c__builtin__
dict
p2
(dp3
g0
(cGraph
Vertex
p4
c__builtin__
object
p5
Ntp6
Rp7
(dp8
S'label'
p9
S'#Q'
p10
sb(dp11
sg0
(g4
g5
Ntp12
Rp13
(dp14
g9
S'/wiki/Dance'
p15
sb(dp16
g0
(g4
g5
Ntp17
Rp18
(dp19
g9
S'/wiki/Dance_music'
p20
sbg0
(cDirectedGraph
Arc
p21
c__builtin__
tuple
p22
(g13
g18
tp23
tp24
Rp25
sg0
(g4
g5
Ntp26
Rp27
(dp28
g9
S'/wiki/Competitive_dance'
p29
sbg0
(g21
g22
(g13
g27
tp30
tp31
Rp32
sg0
(g4
g5
Ntp33
Rp34
(dp35
g9
S'/wiki/Physically_integrated_dance'
p36
sbg0
(g21
g22
(g13
g34
tp37
tp38
Rp39
sg0
(g4
g5
Ntp40
Rp41
(dp42
g9
S'/wiki/File:Ballerina-icon.jpg'
p43
sbg0
(g21
g22
(g13
g41
tp44
tp45
Rp46
sg0
(g4
g5
Ntp47
Rp48
(dp49
g9
S'/wiki/Dance_criticism'
p50
sbg0
(g21
g22
(g13
g48
tp51
tp52
Rp53
sg0
(g4
g5
Ntp54
Rp55
(dp56
g9
S'/wiki/Belly_dance'
p57
sbg0
(g21
g22
(g13
g55
tp58
tp59
Rp60
sg0
(g4
g5
Ntp61
Rp62
(dp63
g9
S'/wiki/List_of_dances'
p64
sbg0
(g21
g22
(g13
g62
tp65
tp66
Rp67
sg0
(g4
g5
Ntp68
Rp69
(dp70
g9
S'/wiki/Dance_move'
p71
sbg0
(g21
g22
(g13
g69
tp72
tp73
Rp74
sg0
(g4
g5
Ntp75
Rp76
(dp77
g9
S'/wiki/History_of_dance'
p78
sbg0
(g21
g22
(g13
g76
tp79
tp80
Rp81
sg0
(g4
g5
Ntp82
Rp83
(dp84
g9
S'/wiki/Connection_(dance)'
p85
sbg0
(g21
g22
(g13
g83
tp86
tp87
Rp88
sg0
(g4
g5
Ntp89
Rp90
(dp91
g9
S'/wiki/Acro_dance'
p92
sbg0
(g21
g22
(g13
g90
tp93
tp94
Rp95
sg0
(g4
g5
Ntp96
Rp97
(dp98
g9
S'/wiki/Dance_notation'
p99
sbg0
(g21
g22
(g13
g97
tp100
tp101
Rp102
sg0
(g4
g5
Ntp103
Rp104
(dp105
g9
S'/wiki/Krumping'
p106
sbg0
(g21
g22
(g13
g104
tp107
tp108
Rp109
sg0
(g4
g5
Ntp110
Rp111
(dp112
g9
S'/wiki/Choreography'
p113
sbg0
(g21
g22
(g13
g111
tp114
tp115
Rp116
sg0
(g4
g5
Ntp117
Rp118
(dp119
g9
S'/wiki/Dance_in_mythology_and_religion'
p120
sbg0
(g21
g22
(g13
g118
tp121
tp122
Rp123
sg0
(g4
g5
Ntp124
Rp125
(dp126
g9
S'/wiki/Hip_hop_dance'
p127
sbg0
(g21
g22
(g13
g125
tp128
tp129
Rp130
sg0
(g4
g5
Ntp131
Rp132
(dp133
g9
S'/wiki/Lead_and_follow'
p134
sbg0
(g21
g22
(g13
g132
tp135
tp136
Rp137
sg0
(g4
g5
Ntp138
Rp139
(dp140
g9
S'/wiki/Ballet'
p141
sbg0
(g21
g22
(g13
g139
tp142
tp143
Rp144
sg0
(g4
g5
Ntp145
Rp146
(dp147
g9
S'/wiki/Sequence_dancing'
p148
sbg0
(g21
g22
(g13
g146
tp149
tp150
Rp151
sg0
(g4
g5
Ntp152
Rp153
(dp154
g9
S'/wiki/Dance_in_film'
p155
sbg0
(g21
g22
(g13
g153
tp156
tp157
Rp158
sg0
(g4
g5
Ntp159
Rp160
(dp161
g9
S'/wiki/List_of_dance_style_categories'
p162
sbg0
(g21
g22
(g13
g160
tp163
tp164
Rp165
ssg18
(dp166
g27
g0
(g21
g22
(g18
g27
tp167
tp168
Rp169
sg13
g0
(g21
g22
(g18
g13
tp170
tp171
Rp172
sg55
g0
(g21
g22
(g18
g55
tp173
tp174
Rp175
sg104
g0
(g21
g22
(g18
g104
tp176
tp177
Rp178
sg62
g0
(g21
g22
(g18
g62
tp179
tp180
Rp181
sg90
g0
(g21
g22
(g18
g90
tp182
tp183
Rp184
sg83
g0
(g21
g22
(g18
g83
tp185
tp186
Rp187
sg76
g0
(g21
g22
(g18
g76
tp188
tp189
Rp190
sg97
g0
(g21
g22
(g18
g97
tp191
tp192
Rp193
sg0
(g4
g5
Ntp194
Rp195
(dp196
g9
S'/wiki/Rave'
p197
sbg0
(g21
g22
(g18
g195
tp198
tp199
Rp200
sg111
g0
(g21
g22
(g18
g111
tp201
tp202
Rp203
sg118
g0
(g21
g22
(g18
g118
tp204
tp205
Rp206
sg132
g0
(g21
g22
(g18
g132
tp207
tp208
Rp209
sg139
g0
(g21
g22
(g18
g139
tp210
tp211
Rp212
sg69
g0
(g21
g22
(g18
g69
tp213
tp214
Rp215
sg153
g0
(g21
g22
(g18
g153
tp216
tp217
Rp218
sg146
g0
(g21
g22
(g18
g146
tp219
tp220
Rp221
ssg0
(g4
g5
Ntp222
Rp223
(dp224
g9
S'/wiki/Academy_Award_for_Best_Dance_Direction'
p225
sb(dp226
sg90
(dp227
g27
g0
(g21
g22
(g90
g27
tp228
tp229
Rp230
sg41
g0
(g21
g22
(g90
g41
tp231
tp232
Rp233
sg13
g0
(g21
g22
(g90
g13
tp234
tp235
Rp236
sg111
g0
(g21
g22
(g90
g111
tp237
tp238
Rp239
sg139
g0
(g21
g22
(g90
g139
tp240
tp241
Rp242
sg160
g0
(g21
g22
(g90
g160
tp243
tp244
Rp245
ssg0
(g4
g5
Ntp246
Rp247
(dp248
g9
S'#S'
p249
sb(dp250
sg0
(g4
g5
Ntp251
Rp252
(dp253
g9
S'/wiki/Aerobics'
p254
sb(dp255
g111
g0
(g21
g22
(g252
g111
tp256
tp257
Rp258
ssg0
(g4
g5
Ntp259
Rp260
(dp261
g9
S'/wiki/Authentic_Movement'
p262
sb(dp263
sg48
(dp264
g139
g0
(g21
g22
(g48
g139
tp265
tp266
Rp267
sg41
g0
(g21
g22
(g48
g41
tp268
tp269
Rp270
ssg139
(dp271
g0
(g4
g5
Ntp272
Rp273
(dp274
g9
S'/wiki/Pointe_shoes'
p275
sbg0
(g21
g22
(g139
g273
tp276
tp277
Rp278
sg0
(g4
g5
Ntp279
Rp280
(dp281
g9
S'/wiki/Ballet_shoes'
p282
sbg0
(g21
g22
(g139
g280
tp283
tp284
Rp285
sg111
g0
(g21
g22
(g139
g111
tp286
tp287
Rp288
sg0
(g4
g5
Ntp289
Rp290
(dp291
g9
S'/wiki/Western_stereotype_of_the_male_ballet_dancer'
p292
sbg0
(g21
g22
(g139
g290
tp293
tp294
Rp295
ssg280
(dp296
g139
g0
(g21
g22
(g280
g139
tp297
tp298
Rp299
sg273
g0
(g21
g22
(g280
g273
tp300
tp301
Rp302
ssg97
(dp303
g27
g0
(g21
g22
(g97
g27
tp304
tp305
Rp306
sg13
g0
(g21
g22
(g97
g13
tp307
tp308
Rp309
sg55
g0
(g21
g22
(g97
g55
tp310
tp311
Rp312
sg62
g0
(g21
g22
(g97
g62
tp313
tp314
Rp315
sg90
g0
(g21
g22
(g97
g90
tp316
tp317
Rp318
sg83
g0
(g21
g22
(g97
g83
tp319
tp320
Rp321
sg69
g0
(g21
g22
(g97
g69
tp322
tp323
Rp324
sg76
g0
(g21
g22
(g97
g76
tp325
tp326
Rp327
sg104
g0
(g21
g22
(g97
g104
tp328
tp329
Rp330
sg0
(g4
g5
Ntp331
Rp332
(dp333
g9
S'/wiki/Labanotation'
p334
sbg0
(g21
g22
(g97
g332
tp335
tp336
Rp337
sg118
g0
(g21
g22
(g97
g118
tp338
tp339
Rp340
sg132
g0
(g21
g22
(g97
g132
tp341
tp342
Rp343
sg18
g0
(g21
g22
(g97
g18
tp344
tp345
Rp346
sg139
g0
(g21
g22
(g97
g139
tp347
tp348
Rp349
sg146
g0
(g21
g22
(g97
g146
tp350
tp351
Rp352
sg153
g0
(g21
g22
(g97
g153
tp353
tp354
Rp355
sg111
g0
(g21
g22
(g97
g111
tp356
tp357
Rp358
ssg55
(dp359
g27
g0
(g21
g22
(g55
g27
tp360
tp361
Rp362
sg13
g0
(g21
g22
(g55
g13
tp363
tp364
Rp365
sg18
g0
(g21
g22
(g55
g18
tp366
tp367
Rp368
sg62
g0
(g21
g22
(g55
g62
tp369
tp370
Rp371
sg111
g0
(g21
g22
(g55
g111
tp372
tp373
Rp374
sg90
g0
(g21
g22
(g55
g90
tp375
tp376
Rp377
sg83
g0
(g21
g22
(g55
g83
tp378
tp379
Rp380
sg76
g0
(g21
g22
(g55
g76
tp381
tp382
Rp383
sg97
g0
(g21
g22
(g55
g97
tp384
tp385
Rp386
sg104
g0
(g21
g22
(g55
g104
tp387
tp388
Rp389
sg0
(g4
g5
Ntp390
Rp391
(dp392
g9
S'/wiki/Dance_basic_topics'
p393
sbg0
(g21
g22
(g55
g391
tp394
tp395
Rp396
sg118
g0
(g21
g22
(g55
g118
tp397
tp398
Rp399
sg132
g0
(g21
g22
(g55
g132
tp400
tp401
Rp402
sg139
g0
(g21
g22
(g55
g139
tp403
tp404
Rp405
sg69
g0
(g21
g22
(g55
g69
tp406
tp407
Rp408
sg153
g0
(g21
g22
(g55
g153
tp409
tp410
Rp411
sg146
g0
(g21
g22
(g55
g146
tp412
tp413
Rp414
ssg0
(g4
g5
Ntp415
Rp416
(dp417
g9
S'/wiki/Bihu_dance'
p418
sb(dp419
g0
(g4
g5
Ntp420
Rp421
(dp422
g9
S'/wiki/Circle_dance'
p423
sbg0
(g21
g22
(g416
g421
tp424
tp425
Rp426
ssg104
(dp427
g0
(g4
g5
Ntp428
Rp429
(dp430
g9
S'/wiki/Melbourne_Shuffle'
p431
sbg0
(g21
g22
(g104
g429
tp432
tp433
Rp434
sg0
(g4
g5
Ntp435
Rp436
(dp437
g9
S'/wiki/Dance_improvisation'
p438
sbg0
(g21
g22
(g104
g436
tp439
tp440
Rp441
sg0
(g4
g5
Ntp442
Rp443
(dp444
g9
S'/wiki/Footwork_(dance)'
p445
sbg0
(g21
g22
(g104
g443
tp446
tp447
Rp448
ssg0
(g4
g5
Ntp449
Rp450
(dp451
g9
S'/wiki/Glossary_of_ballet_terms'
p452
sb(dp453
g139
g0
(g21
g22
(g450
g139
tp454
tp455
Rp456
sg280
g0
(g21
g22
(g450
g280
tp457
tp458
Rp459
sg13
g0
(g21
g22
(g450
g13
tp460
tp461
Rp462
sg391
g0
(g21
g22
(g450
g391
tp463
tp464
Rp465
sg273
g0
(g21
g22
(g450
g273
tp466
tp467
Rp468
ssg0
(g4
g5
Ntp469
Rp470
(dp471
g9
S'/wiki/Body_contact_(dance)'
p472
sb(dp473
g0
(g4
g5
Ntp474
Rp475
(dp476
g9
S'/wiki/Frame_(dance)'
p477
sbg0
(g21
g22
(g470
g475
tp478
tp479
Rp480
sg0
(g4
g5
Ntp481
Rp482
(dp483
g9
S'/wiki/Closed_position'
p484
sbg0
(g21
g22
(g470
g482
tp485
tp486
Rp487
sg83
g0
(g21
g22
(g470
g83
tp488
tp489
Rp490
ssg0
(g4
g5
Ntp491
Rp492
(dp493
g9
S'/wiki/British_Sequence_Championships'
p494
sb(dp495
sg0
(g4
g5
Ntp496
Rp497
(dp498
g9
S'http://www.dancemotionstudios.com'
p499
sb(dp500
sg111
(dp501
g27
g0
(g21
g22
(g111
g27
tp502
tp503
Rp504
sg41
g0
(g21
g22
(g111
g41
tp505
tp506
Rp507
sg55
g0
(g21
g22
(g111
g55
tp508
tp509
Rp510
sg0
(g4
g5
Ntp511
Rp512
(dp513
g9
S'/wiki/Contact_improvisation'
p514
sbg0
(g21
g22
(g111
g512
tp515
tp516
Rp517
sg62
g0
(g21
g22
(g111
g62
tp518
tp519
Rp520
sg13
g0
(g21
g22
(g111
g13
tp521
tp522
Rp523
sg90
g0
(g21
g22
(g111
g90
tp524
tp525
Rp526
sg83
g0
(g21
g22
(g111
g83
tp527
tp528
Rp529
sg69
g0
(g21
g22
(g111
g69
tp530
tp531
Rp532
sg76
g0
(g21
g22
(g111
g76
tp533
tp534
Rp535
sg104
g0
(g21
g22
(g111
g104
tp536
tp537
Rp538
sg146
g0
(g21
g22
(g111
g146
tp539
tp540
Rp541
sg118
g0
(g21
g22
(g111
g118
tp542
tp543
Rp544
sg132
g0
(g21
g22
(g111
g132
tp545
tp546
Rp547
sg18
g0
(g21
g22
(g111
g18
tp548
tp549
Rp550
sg139
g0
(g21
g22
(g111
g139
tp551
tp552
Rp553
sg436
g0
(g21
g22
(g111
g436
tp554
tp555
Rp556
sg153
g0
(g21
g22
(g111
g153
tp557
tp558
Rp559
sg97
g0
(g21
g22
(g111
g97
tp560
tp561
Rp562
ssg0
(g4
g5
Ntp563
Rp564
(dp565
g9
S'/wiki/List_of_dance_personalities'
p566
sb(dp567
g27
g0
(g21
g22
(g564
g27
tp568
tp569
Rp570
sg13
g0
(g21
g22
(g564
g13
tp571
tp572
Rp573
sg55
g0
(g21
g22
(g564
g55
tp574
tp575
Rp576
sg62
g0
(g21
g22
(g564
g62
tp577
tp578
Rp579
sg111
g0
(g21
g22
(g564
g111
tp580
tp581
Rp582
sg90
g0
(g21
g22
(g564
g90
tp583
tp584
Rp585
sg83
g0
(g21
g22
(g564
g83
tp586
tp587
Rp588
sg0
(g4
g5
Ntp589
Rp590
(dp591
g9
S'/wiki/List_of_dancers'
p592
sbg0
(g21
g22
(g564
g590
tp593
tp594
Rp595
sg76
g0
(g21
g22
(g564
g76
tp596
tp597
Rp598
sg104
g0
(g21
g22
(g564
g104
tp599
tp600
Rp601
sg332
g0
(g21
g22
(g564
g332
tp602
tp603
Rp604
sg118
g0
(g21
g22
(g564
g118
tp605
tp606
Rp607
sg132
g0
(g21
g22
(g564
g132
tp608
tp609
Rp610
sg18
g0
(g21
g22
(g564
g18
tp611
tp612
Rp613
sg139
g0
(g21
g22
(g564
g139
tp614
tp615
Rp616
sg97
g0
(g21
g22
(g564
g97
tp617
tp618
Rp619
sg69
g0
(g21
g22
(g564
g69
tp620
tp621
Rp622
sg153
g0
(g21
g22
(g564
g153
tp623
tp624
Rp625
sg146
g0
(g21
g22
(g564
g146
tp626
tp627
Rp628
ssg421
(dp629
sg482
(dp630
g475
g0
(g21
g22
(g482
g475
tp631
tp632
Rp633
sg470
g0
(g21
g22
(g482
g470
tp634
tp635
Rp636
sg83
g0
(g21
g22
(g482
g83
tp637
tp638
Rp639
sg0
(g4
g5
Ntp640
Rp641
(dp642
g9
S'/wiki/Open_position'
p643
sbg0
(g21
g22
(g482
g641
tp644
tp645
Rp646
ssg0
(g4
g5
Ntp647
Rp648
(dp649
g9
S'#U'
p650
sb(dp651
sg27
(dp652
g0
(g4
g5
Ntp653
Rp654
(dp655
g9
S'/wiki/List_of_dance_organizations'
p656
sbg0
(g21
g22
(g27
g654
tp657
tp658
Rp659
sg139
g0
(g21
g22
(g27
g139
tp660
tp661
Rp662
sg111
g0
(g21
g22
(g27
g111
tp663
tp664
Rp665
sg90
g0
(g21
g22
(g27
g90
tp666
tp667
Rp668
sg146
g0
(g21
g22
(g27
g146
tp669
tp670
Rp671
ssg83
(dp672
g0
(g4
g5
Ntp673
Rp674
(dp675
g9
S'/wiki/Musicality_(dance)'
p676
sbg0
(g21
g22
(g83
g674
tp677
tp678
Rp679
sg146
g0
(g21
g22
(g83
g146
tp680
tp681
Rp682
sg139
g0
(g21
g22
(g83
g139
tp683
tp684
Rp685
sg641
g0
(g21
g22
(g83
g641
tp686
tp687
Rp688
sg27
g0
(g21
g22
(g83
g27
tp689
tp690
Rp691
sg470
g0
(g21
g22
(g83
g470
tp692
tp693
Rp694
sg62
g0
(g21
g22
(g83
g62
tp695
tp696
Rp697
sg111
g0
(g21
g22
(g83
g111
tp698
tp699
Rp700
sg90
g0
(g21
g22
(g83
g90
tp701
tp702
Rp703
sg69
g0
(g21
g22
(g83
g69
tp704
tp705
Rp706
sg76
g0
(g21
g22
(g83
g76
tp707
tp708
Rp709
sg104
g0
(g21
g22
(g83
g104
tp710
tp711
Rp712
sg55
g0
(g21
g22
(g83
g55
tp713
tp714
Rp715
sg118
g0
(g21
g22
(g83
g118
tp716
tp717
Rp718
sg475
g0
(g21
g22
(g83
g475
tp719
tp720
Rp721
sg18
g0
(g21
g22
(g83
g18
tp722
tp723
Rp724
sg132
g0
(g21
g22
(g83
g132
tp725
tp726
Rp727
sg97
g0
(g21
g22
(g83
g97
tp728
tp729
Rp730
sg482
g0
(g21
g22
(g83
g482
tp731
tp732
Rp733
sg153
g0
(g21
g22
(g83
g153
tp734
tp735
Rp736
sg13
g0
(g21
g22
(g83
g13
tp737
tp738
Rp739
ssg0
(g4
g5
Ntp740
Rp741
(dp742
g9
S'/wiki/Yemenite_(Jewish_dance)'
p743
sb(dp744
g69
g0
(g21
g22
(g741
g69
tp745
tp746
Rp747
ssg475
(dp748
g482
g0
(g21
g22
(g475
g482
tp749
tp750
Rp751
sg83
g0
(g21
g22
(g475
g83
tp752
tp753
Rp754
sg641
g0
(g21
g22
(g475
g641
tp755
tp756
Rp757
ssg512
(dp758
g160
g0
(g21
g22
(g512
g160
tp759
tp760
Rp761
sg111
g0
(g21
g22
(g512
g111
tp762
tp763
Rp764
sg436
g0
(g21
g22
(g512
g436
tp765
tp766
Rp767
sg0
(g4
g5
Ntp768
Rp769
(dp770
g9
S'/wiki/Skinner_releasing_technique'
p771
sbg0
(g21
g22
(g512
g769
tp772
tp773
Rp774
ssg0
(g4
g5
Ntp775
Rp776
(dp777
g9
S'/wiki/Contra_body_movement'
p778
sb(dp779
g62
g0
(g21
g22
(g776
g62
tp780
tp781
Rp782
sg69
g0
(g21
g22
(g776
g69
tp783
tp784
Rp785
ssg590
(dp786
g104
g0
(g21
g22
(g590
g104
tp787
tp788
Rp789
sg564
g0
(g21
g22
(g590
g564
tp790
tp791
Rp792
sg139
g0
(g21
g22
(g590
g139
tp793
tp794
Rp795
sg41
g0
(g21
g22
(g590
g41
tp796
tp797
Rp798
sg55
g0
(g21
g22
(g590
g55
tp799
tp800
Rp801
ssg0
(g4
g5
Ntp802
Rp803
(dp804
g9
S'/wiki/Dance_and_music_of_Latin_America'
p805
sb(dp806
sg391
(dp807
g18
g0
(g21
g22
(g391
g18
tp808
tp809
Rp810
sg97
g0
(g21
g22
(g391
g97
tp811
tp812
Rp813
sg564
g0
(g21
g22
(g391
g564
tp814
tp815
Rp816
sg590
g0
(g21
g22
(g391
g590
tp817
tp818
Rp819
sg0
(g4
g5
Ntp820
Rp821
(dp822
g9
S'/wiki/DanceSport'
p823
sbg0
(g21
g22
(g391
g821
tp824
tp825
Rp826
sg139
g0
(g21
g22
(g391
g139
tp827
tp828
Rp829
sg160
g0
(g21
g22
(g391
g160
tp830
tp831
Rp832
sg450
g0
(g21
g22
(g391
g450
tp833
tp834
Rp835
sg0
(g4
g5
Ntp836
Rp837
(dp838
g9
S'/wiki/Glossary_of_partner_dance_terms'
p839
sbg0
(g21
g22
(g391
g837
tp840
tp841
Rp842
sg76
g0
(g21
g22
(g391
g76
tp843
tp844
Rp845
sg111
g0
(g21
g22
(g391
g111
tp846
tp847
Rp848
sg654
g0
(g21
g22
(g391
g654
tp849
tp850
Rp851
sg83
g0
(g21
g22
(g391
g83
tp852
tp853
Rp854
sg62
g0
(g21
g22
(g391
g62
tp855
tp856
Rp857
sg0
(g4
g5
Ntp858
Rp859
(dp860
g9
S'/wiki/List_of_folk_dances_sorted_by_origin'
p861
sbg0
(g21
g22
(g391
g859
tp862
tp863
Rp864
sg0
(g4
g5
Ntp865
Rp866
(dp867
g9
S'/wiki/List_of_New_York_City_Ballet_repertory'
p868
sbg0
(g21
g22
(g391
g866
tp869
tp870
Rp871
sg0
(g4
g5
Ntp872
Rp873
(dp874
g9
S'/wiki/Novelty_and_fad_dances'
p875
sbg0
(g21
g22
(g391
g873
tp876
tp877
Rp878
sg674
g0
(g21
g22
(g391
g674
tp879
tp880
Rp881
sg41
g0
(g21
g22
(g391
g41
tp882
tp883
Rp884
sg13
g0
(g21
g22
(g391
g13
tp885
tp886
Rp887
sg153
g0
(g21
g22
(g391
g153
tp888
tp889
Rp890
sg118
g0
(g21
g22
(g391
g118
tp891
tp892
Rp893
sg69
g0
(g21
g22
(g391
g69
tp894
tp895
Rp896
ssg132
(dp897
g27
g0
(g21
g22
(g132
g27
tp898
tp899
Rp900
sg139
g0
(g21
g22
(g132
g139
tp901
tp902
Rp903
sg641
g0
(g21
g22
(g132
g641
tp904
tp905
Rp906
sg55
g0
(g21
g22
(g132
g55
tp907
tp908
Rp909
sg512
g0
(g21
g22
(g132
g512
tp910
tp911
Rp912
sg62
g0
(g21
g22
(g132
g62
tp913
tp914
Rp915
sg13
g0
(g21
g22
(g132
g13
tp916
tp917
Rp918
sg90
g0
(g21
g22
(g132
g90
tp919
tp920
Rp921
sg69
g0
(g21
g22
(g132
g69
tp922
tp923
Rp924
sg76
g0
(g21
g22
(g132
g76
tp925
tp926
Rp927
sg104
g0
(g21
g22
(g132
g104
tp928
tp929
Rp930
sg146
g0
(g21
g22
(g132
g146
tp931
tp932
Rp933
sg118
g0
(g21
g22
(g132
g118
tp934
tp935
Rp936
sg470
g0
(g21
g22
(g132
g470
tp937
tp938
Rp939
sg18
g0
(g21
g22
(g132
g18
tp940
tp941
Rp942
sg0
(g4
g5
Ntp943
Rp944
(dp945
g9
S'/wiki/Syncopation_(dance)'
p946
sbg0
(g21
g22
(g132
g944
tp947
tp948
Rp949
sg111
g0
(g21
g22
(g132
g111
tp950
tp951
Rp952
sg97
g0
(g21
g22
(g132
g97
tp953
tp954
Rp955
sg482
g0
(g21
g22
(g132
g482
tp956
tp957
Rp958
sg153
g0
(g21
g22
(g132
g153
tp959
tp960
Rp961
sg83
g0
(g21
g22
(g132
g83
tp962
tp963
Rp964
ssg0
(g4
g5
Ntp965
Rp966
(dp967
g9
S'/wiki/Template_talk:Index_footer'
p968
sb(dp969
sg436
(dp970
g55
g0
(g21
g22
(g436
g55
tp971
tp972
Rp973
sg160
g0
(g21
g22
(g436
g160
tp974
tp975
Rp976
sg512
g0
(g21
g22
(g436
g512
tp977
tp978
Rp979
sg111
g0
(g21
g22
(g436
g111
tp980
tp981
Rp982
sg132
g0
(g21
g22
(g436
g132
tp983
tp984
Rp985
sg41
g0
(g21
g22
(g436
g41
tp986
tp987
Rp988
ssg0
(g4
g5
Ntp989
Rp990
(dp991
g9
S'#A'
p992
sb(dp993
sg0
(g4
g5
Ntp994
Rp995
(dp996
g9
S'/wiki/Dance_in_Australia'
p997
sb(dp998
g429
g0
(g21
g22
(g995
g429
tp999
tp1000
Rp1001
ssg0
(g4
g5
Ntp1002
Rp1003
(dp1004
g9
S'/wiki/Dance_in_Canada'
p1005
sb(dp1006
g139
g0
(g21
g22
(g1003
g139
tp1007
tp1008
Rp1009
sg41
g0
(g21
g22
(g1003
g41
tp1010
tp1011
Rp1012
sg13
g0
(g21
g22
(g1003
g13
tp1013
tp1014
Rp1015
sg0
(g4
g5
Ntp1016
Rp1017
(dp1018
g9
S'/wiki/Dance_in_the_United_States'
p1019
sbg0
(g21
g22
(g1003
g1017
tp1020
tp1021
Rp1022
ssg821
(dp1023
g654
g0
(g21
g22
(g821
g654
tp1024
tp1025
Rp1026
sg111
g0
(g21
g22
(g821
g111
tp1027
tp1028
Rp1029
sg391
g0
(g21
g22
(g821
g391
tp1030
tp1031
Rp1032
sg41
g0
(g21
g22
(g821
g41
tp1033
tp1034
Rp1035
ssg0
(g4
g5
Ntp1036
Rp1037
(dp1038
g9
S'/wiki/Dance_of_India'
p1039
sb(dp1040
g139
g0
(g21
g22
(g1037
g139
tp1041
tp1042
Rp1043
sg13
g0
(g21
g22
(g1037
g13
tp1044
tp1045
Rp1046
sg0
(g4
g5
Ntp1047
Rp1048
(dp1049
g9
S'/wiki/Dance_in_Singapore'
p1050
sbg0
(g21
g22
(g1037
g1048
tp1051
tp1052
Rp1053
ssg1048
(dp1054
g13
g0
(g21
g22
(g1048
g13
tp1055
tp1056
Rp1057
ssg654
(dp1058
g41
g0
(g21
g22
(g654
g41
tp1059
tp1060
Rp1061
ssg0
(g4
g5
Ntp1062
Rp1063
(dp1064
g9
S'#D'
p1065
sb(dp1066
sg118
(dp1067
g55
g0
(g21
g22
(g118
g55
tp1068
tp1069
Rp1070
sg13
g0
(g21
g22
(g118
g13
tp1071
tp1072
Rp1073
sg27
g0
(g21
g22
(g118
g27
tp1074
tp1075
Rp1076
sg62
g0
(g21
g22
(g118
g62
tp1077
tp1078
Rp1079
sg90
g0
(g21
g22
(g118
g90
tp1080
tp1081
Rp1082
sg83
g0
(g21
g22
(g118
g83
tp1083
tp1084
Rp1085
sg76
g0
(g21
g22
(g118
g76
tp1086
tp1087
Rp1088
sg97
g0
(g21
g22
(g118
g97
tp1089
tp1090
Rp1091
sg104
g0
(g21
g22
(g118
g104
tp1092
tp1093
Rp1094
sg111
g0
(g21
g22
(g118
g111
tp1095
tp1096
Rp1097
sg132
g0
(g21
g22
(g118
g132
tp1098
tp1099
Rp1100
sg18
g0
(g21
g22
(g118
g18
tp1101
tp1102
Rp1103
sg139
g0
(g21
g22
(g118
g139
tp1104
tp1105
Rp1106
sg69
g0
(g21
g22
(g118
g69
tp1107
tp1108
Rp1109
sg153
g0
(g21
g22
(g118
g153
tp1110
tp1111
Rp1112
sg146
g0
(g21
g22
(g118
g146
tp1113
tp1114
Rp1115
ssg0
(g4
g5
Ntp1116
Rp1117
(dp1118
g9
S'#B'
p1119
sb(dp1120
sg1017
(dp1121
g125
g0
(g21
g22
(g1017
g125
tp1122
tp1123
Rp1124
sg1003
g0
(g21
g22
(g1017
g1003
tp1125
tp1126
Rp1127
ssg69
(dp1128
g27
g0
(g21
g22
(g69
g27
tp1129
tp1130
Rp1131
sg13
g0
(g21
g22
(g69
g13
tp1132
tp1133
Rp1134
sg55
g0
(g21
g22
(g69
g55
tp1135
tp1136
Rp1137
sg62
g0
(g21
g22
(g69
g62
tp1138
tp1139
Rp1140
sg111
g0
(g21
g22
(g69
g111
tp1141
tp1142
Rp1143
sg90
g0
(g21
g22
(g69
g90
tp1144
tp1145
Rp1146
sg76
g0
(g21
g22
(g69
g76
tp1147
tp1148
Rp1149
sg97
g0
(g21
g22
(g69
g97
tp1150
tp1151
Rp1152
sg104
g0
(g21
g22
(g69
g104
tp1153
tp1154
Rp1155
sg41
g0
(g21
g22
(g69
g41
tp1156
tp1157
Rp1158
sg146
g0
(g21
g22
(g69
g146
tp1159
tp1160
Rp1161
sg118
g0
(g21
g22
(g69
g118
tp1162
tp1163
Rp1164
sg132
g0
(g21
g22
(g69
g132
tp1165
tp1166
Rp1167
sg18
g0
(g21
g22
(g69
g18
tp1168
tp1169
Rp1170
sg139
g0
(g21
g22
(g69
g139
tp1171
tp1172
Rp1173
sg153
g0
(g21
g22
(g69
g153
tp1174
tp1175
Rp1176
sg83
g0
(g21
g22
(g69
g83
tp1177
tp1178
Rp1179
ssg0
(g4
g5
Ntp1180
Rp1181
(dp1182
g9
S'/wiki/Direction_of_movement_(dance)'
p1183
sb(dp1184
g139
g0
(g21
g22
(g1181
g139
tp1185
tp1186
Rp1187
sg391
g0
(g21
g22
(g1181
g391
tp1188
tp1189
Rp1190
ssg0
(g4
g5
Ntp1191
Rp1192
(dp1193
g9
S'#H'
p1194
sb(dp1195
sg0
(g4
g5
Ntp1196
Rp1197
(dp1198
g9
S'#I'
p1199
sb(dp1200
sg0
(g4
g5
Ntp1201
Rp1202
(dp1203
g9
S'#X'
p1204
sb(dp1205
sg0
(g4
g5
Ntp1206
Rp1207
(dp1208
g9
S'#J'
p1209
sb(dp1210
sg0
(g4
g5
Ntp1211
Rp1212
(dp1213
g9
S'#K'
p1214
sb(dp1215
sg0
(g4
g5
Ntp1216
Rp1217
(dp1218
g9
S'#C'
p1219
sb(dp1220
sg0
(g4
g5
Ntp1221
Rp1222
(dp1223
g9
S'#L'
p1224
sb(dp1225
sg0
(g4
g5
Ntp1226
Rp1227
(dp1228
g9
S'#M'
p1229
sb(dp1230
sg290
(dp1231
g139
g0
(g21
g22
(g290
g139
tp1232
tp1233
Rp1234
sg273
g0
(g21
g22
(g290
g273
tp1235
tp1236
Rp1237
sg111
g0
(g21
g22
(g290
g111
tp1238
tp1239
Rp1240
sg280
g0
(g21
g22
(g290
g280
tp1241
tp1242
Rp1243
ssg944
(dp1244
g13
g0
(g21
g22
(g944
g13
tp1245
tp1246
Rp1247
ssg0
(g4
g5
Ntp1248
Rp1249
(dp1250
g9
S'#N'
p1251
sb(dp1252
sg0
(g4
g5
Ntp1253
Rp1254
(dp1255
g9
S'#O'
p1256
sb(dp1257
sg0
(g4
g5
Ntp1258
Rp1259
(dp1260
g9
S'#Y'
p1261
sb(dp1262
sg0
(g4
g5
Ntp1263
Rp1264
(dp1265
g9
S'#P'
p1266
sb(dp1267
sg837
(dp1268
g443
g0
(g21
g22
(g837
g443
tp1269
tp1270
Rp1271
sg450
g0
(g21
g22
(g837
g450
tp1272
tp1273
Rp1274
sg160
g0
(g21
g22
(g837
g160
tp1275
tp1276
Rp1277
sg27
g0
(g21
g22
(g837
g27
tp1278
tp1279
Rp1280
sg475
g0
(g21
g22
(g837
g475
tp1281
tp1282
Rp1283
sg62
g0
(g21
g22
(g837
g62
tp1284
tp1285
Rp1286
sg776
g0
(g21
g22
(g837
g776
tp1287
tp1288
Rp1289
sg83
g0
(g21
g22
(g837
g83
tp1290
tp1291
Rp1292
sg69
g0
(g21
g22
(g837
g69
tp1293
tp1294
Rp1295
sg1181
g0
(g21
g22
(g837
g1181
tp1296
tp1297
Rp1298
sg470
g0
(g21
g22
(g837
g470
tp1299
tp1300
Rp1301
sg139
g0
(g21
g22
(g837
g139
tp1302
tp1303
Rp1304
sg674
g0
(g21
g22
(g837
g674
tp1305
tp1306
Rp1307
sg482
g0
(g21
g22
(g837
g482
tp1308
tp1309
Rp1310
sg641
g0
(g21
g22
(g837
g641
tp1311
tp1312
Rp1313
ssg153
(dp1314
g27
g0
(g21
g22
(g153
g27
tp1315
tp1316
Rp1317
sg41
g0
(g21
g22
(g153
g41
tp1318
tp1319
Rp1320
sg55
g0
(g21
g22
(g153
g55
tp1321
tp1322
Rp1323
sg62
g0
(g21
g22
(g153
g62
tp1324
tp1325
Rp1326
sg111
g0
(g21
g22
(g153
g111
tp1327
tp1328
Rp1329
sg90
g0
(g21
g22
(g153
g90
tp1330
tp1331
Rp1332
sg83
g0
(g21
g22
(g153
g83
tp1333
tp1334
Rp1335
sg76
g0
(g21
g22
(g153
g76
tp1336
tp1337
Rp1338
sg97
g0
(g21
g22
(g153
g97
tp1339
tp1340
Rp1341
sg104
g0
(g21
g22
(g153
g104
tp1342
tp1343
Rp1344
sg146
g0
(g21
g22
(g153
g146
tp1345
tp1346
Rp1347
sg118
g0
(g21
g22
(g153
g118
tp1348
tp1349
Rp1350
sg132
g0
(g21
g22
(g153
g132
tp1351
tp1352
Rp1353
sg18
g0
(g21
g22
(g153
g18
tp1354
tp1355
Rp1356
sg139
g0
(g21
g22
(g153
g139
tp1357
tp1358
Rp1359
sg69
g0
(g21
g22
(g153
g69
tp1360
tp1361
Rp1362
sg13
g0
(g21
g22
(g153
g13
tp1363
tp1364
Rp1365
ssg125
(dp1366
g27
g0
(g21
g22
(g125
g27
tp1367
tp1368
Rp1369
sg146
g0
(g21
g22
(g125
g146
tp1370
tp1371
Rp1372
sg41
g0
(g21
g22
(g125
g41
tp1373
tp1374
Rp1375
sg69
g0
(g21
g22
(g125
g69
tp1376
tp1377
Rp1378
sg55
g0
(g21
g22
(g125
g55
tp1379
tp1380
Rp1381
sg132
g0
(g21
g22
(g125
g132
tp1382
tp1383
Rp1384
sg62
g0
(g21
g22
(g125
g62
tp1385
tp1386
Rp1387
sg111
g0
(g21
g22
(g125
g111
tp1388
tp1389
Rp1390
sg83
g0
(g21
g22
(g125
g83
tp1391
tp1392
Rp1393
sg90
g0
(g21
g22
(g125
g90
tp1394
tp1395
Rp1396
sg76
g0
(g21
g22
(g125
g76
tp1397
tp1398
Rp1399
sg104
g0
(g21
g22
(g125
g104
tp1400
tp1401
Rp1402
sg873
g0
(g21
g22
(g125
g873
tp1403
tp1404
Rp1405
sg118
g0
(g21
g22
(g125
g118
tp1406
tp1407
Rp1408
sg139
g0
(g21
g22
(g125
g139
tp1409
tp1410
Rp1411
sg18
g0
(g21
g22
(g125
g18
tp1412
tp1413
Rp1414
sg429
g0
(g21
g22
(g125
g429
tp1415
tp1416
Rp1417
sg97
g0
(g21
g22
(g125
g97
tp1418
tp1419
Rp1420
sg443
g0
(g21
g22
(g125
g443
tp1421
tp1422
Rp1423
sg153
g0
(g21
g22
(g125
g153
tp1424
tp1425
Rp1426
sg13
g0
(g21
g22
(g125
g13
tp1427
tp1428
Rp1429
ssg76
(dp1430
g55
g0
(g21
g22
(g76
g55
tp1431
tp1432
Rp1433
sg13
g0
(g21
g22
(g76
g13
tp1434
tp1435
Rp1436
sg27
g0
(g21
g22
(g76
g27
tp1437
tp1438
Rp1439
sg62
g0
(g21
g22
(g76
g62
tp1440
tp1441
Rp1442
sg90
g0
(g21
g22
(g76
g90
tp1443
tp1444
Rp1445
sg83
g0
(g21
g22
(g76
g83
tp1446
tp1447
Rp1448
sg118
g0
(g21
g22
(g76
g118
tp1449
tp1450
Rp1451
sg97
g0
(g21
g22
(g76
g97
tp1452
tp1453
Rp1454
sg104
g0
(g21
g22
(g76
g104
tp1455
tp1456
Rp1457
sg111
g0
(g21
g22
(g76
g111
tp1458
tp1459
Rp1460
sg132
g0
(g21
g22
(g76
g132
tp1461
tp1462
Rp1463
sg18
g0
(g21
g22
(g76
g18
tp1464
tp1465
Rp1466
sg139
g0
(g21
g22
(g76
g139
tp1467
tp1468
Rp1469
sg69
g0
(g21
g22
(g76
g69
tp1470
tp1471
Rp1472
sg153
g0
(g21
g22
(g76
g153
tp1473
tp1474
Rp1475
sg146
g0
(g21
g22
(g76
g146
tp1476
tp1477
Rp1478
ssg443
(dp1479
g837
g0
(g21
g22
(g443
g837
tp1480
tp1481
Rp1482
sg450
g0
(g21
g22
(g443
g450
tp1483
tp1484
Rp1485
sg41
g0
(g21
g22
(g443
g41
tp1486
tp1487
Rp1488
sg104
g0
(g21
g22
(g443
g104
tp1489
tp1490
Rp1491
sg429
g0
(g21
g22
(g443
g429
tp1492
tp1493
Rp1494
sg13
g0
(g21
g22
(g443
g13
tp1495
tp1496
Rp1497
ssg0
(g4
g5
Ntp1498
Rp1499
(dp1500
g9
S'#T'
p1501
sb(dp1502
sg332
(dp1503
g111
g0
(g21
g22
(g332
g111
tp1504
tp1505
Rp1506
sg97
g0
(g21
g22
(g332
g97
tp1507
tp1508
Rp1509
sg41
g0
(g21
g22
(g332
g41
tp1510
tp1511
Rp1512
ssg0
(g4
g5
Ntp1513
Rp1514
(dp1515
g9
S'#Z'
p1516
sb(dp1517
sg0
(g4
g5
Ntp1518
Rp1519
(dp1520
g9
S'#V'
p1521
sb(dp1522
sg0
(g4
g5
Ntp1523
Rp1524
(dp1525
g9
S'#W'
p1526
sb(dp1527
sg0
(g4
g5
Ntp1528
Rp1529
(dp1530
g9
S'#E'
p1531
sb(dp1532
sg0
(g4
g5
Ntp1533
Rp1534
(dp1535
g9
S'/wiki/List_of_dance_people'
p1536
sb(dp1537
g27
g0
(g21
g22
(g1534
g27
tp1538
tp1539
Rp1540
sg13
g0
(g21
g22
(g1534
g13
tp1541
tp1542
Rp1543
sg55
g0
(g21
g22
(g1534
g55
tp1544
tp1545
Rp1546
sg62
g0
(g21
g22
(g1534
g62
tp1547
tp1548
Rp1549
sg111
g0
(g21
g22
(g1534
g111
tp1550
tp1551
Rp1552
sg90
g0
(g21
g22
(g1534
g90
tp1553
tp1554
Rp1555
sg83
g0
(g21
g22
(g1534
g83
tp1556
tp1557
Rp1558
sg590
g0
(g21
g22
(g1534
g590
tp1559
tp1560
Rp1561
sg76
g0
(g21
g22
(g1534
g76
tp1562
tp1563
Rp1564
sg104
g0
(g21
g22
(g1534
g104
tp1565
tp1566
Rp1567
sg332
g0
(g21
g22
(g1534
g332
tp1568
tp1569
Rp1570
sg118
g0
(g21
g22
(g1534
g118
tp1571
tp1572
Rp1573
sg132
g0
(g21
g22
(g1534
g132
tp1574
tp1575
Rp1576
sg18
g0
(g21
g22
(g1534
g18
tp1577
tp1578
Rp1579
sg139
g0
(g21
g22
(g1534
g139
tp1580
tp1581
Rp1582
sg97
g0
(g21
g22
(g1534
g97
tp1583
tp1584
Rp1585
sg69
g0
(g21
g22
(g1534
g69
tp1586
tp1587
Rp1588
sg153
g0
(g21
g22
(g1534
g153
tp1589
tp1590
Rp1591
sg146
g0
(g21
g22
(g1534
g146
tp1592
tp1593
Rp1594
ssg160
(dp1595
g55
g0
(g21
g22
(g160
g55
tp1596
tp1597
Rp1598
sg139
g0
(g21
g22
(g160
g139
tp1599
tp1600
Rp1601
sg125
g0
(g21
g22
(g160
g125
tp1602
tp1603
Rp1604
sg90
g0
(g21
g22
(g160
g90
tp1605
tp1606
Rp1607
sg104
g0
(g21
g22
(g160
g104
tp1608
tp1609
Rp1610
sg873
g0
(g21
g22
(g160
g873
tp1611
tp1612
Rp1613
sg512
g0
(g21
g22
(g160
g512
tp1614
tp1615
Rp1616
sg429
g0
(g21
g22
(g160
g429
tp1617
tp1618
Rp1619
sg443
g0
(g21
g22
(g160
g443
tp1620
tp1621
Rp1622
ssg41
(dp1623
sg62
(dp1624
g18
g0
(g21
g22
(g62
g18
tp1625
tp1626
Rp1627
sg13
g0
(g21
g22
(g62
g13
tp1628
tp1629
Rp1630
sg90
g0
(g21
g22
(g62
g90
tp1631
tp1632
Rp1633
sg139
g0
(g21
g22
(g62
g139
tp1634
tp1635
Rp1636
sg160
g0
(g21
g22
(g62
g160
tp1637
tp1638
Rp1639
sg55
g0
(g21
g22
(g62
g55
tp1640
tp1641
Rp1642
sg146
g0
(g21
g22
(g62
g146
tp1643
tp1644
Rp1645
sg125
g0
(g21
g22
(g62
g125
tp1646
tp1647
Rp1648
sg76
g0
(g21
g22
(g62
g76
tp1649
tp1650
Rp1651
sg104
g0
(g21
g22
(g62
g104
tp1652
tp1653
Rp1654
sg111
g0
(g21
g22
(g62
g111
tp1655
tp1656
Rp1657
sg132
g0
(g21
g22
(g62
g132
tp1658
tp1659
Rp1660
sg654
g0
(g21
g22
(g62
g654
tp1661
tp1662
Rp1663
sg27
g0
(g21
g22
(g62
g27
tp1664
tp1665
Rp1666
sg83
g0
(g21
g22
(g62
g83
tp1667
tp1668
Rp1669
sg512
g0
(g21
g22
(g62
g512
tp1670
tp1671
Rp1672
sg859
g0
(g21
g22
(g62
g859
tp1673
tp1674
Rp1675
sg391
g0
(g21
g22
(g62
g391
tp1676
tp1677
Rp1678
sg421
g0
(g21
g22
(g62
g421
tp1679
tp1680
Rp1681
sg429
g0
(g21
g22
(g62
g429
tp1682
tp1683
Rp1684
sg416
g0
(g21
g22
(g62
g416
tp1685
tp1686
Rp1687
sg41
g0
(g21
g22
(g62
g41
tp1688
tp1689
Rp1690
sg97
g0
(g21
g22
(g62
g97
tp1691
tp1692
Rp1693
sg153
g0
(g21
g22
(g62
g153
tp1694
tp1695
Rp1696
sg118
g0
(g21
g22
(g62
g118
tp1697
tp1698
Rp1699
sg0
(g4
g5
Ntp1700
Rp1701
(dp1702
g9
S'/wiki/Sacred_dance'
p1703
sbg0
(g21
g22
(g62
g1701
tp1704
tp1705
Rp1706
sg69
g0
(g21
g22
(g62
g69
tp1707
tp1708
Rp1709
sg873
g0
(g21
g22
(g62
g873
tp1710
tp1711
Rp1712
ssg859
(dp1713
g62
g0
(g21
g22
(g859
g62
tp1714
tp1715
Rp1716
sg391
g0
(g21
g22
(g859
g391
tp1717
tp1718
Rp1719
sg41
g0
(g21
g22
(g859
g41
tp1720
tp1721
Rp1722
sg1017
g0
(g21
g22
(g859
g1017
tp1723
tp1724
Rp1725
sg421
g0
(g21
g22
(g859
g421
tp1726
tp1727
Rp1728
ssg866
(dp1729
g139
g0
(g21
g22
(g866
g139
tp1730
tp1731
Rp1732
sg280
g0
(g21
g22
(g866
g280
tp1733
tp1734
Rp1735
sg273
g0
(g21
g22
(g866
g273
tp1736
tp1737
Rp1738
ssg873
(dp1739
g62
g0
(g21
g22
(g873
g62
tp1740
tp1741
Rp1742
sg41
g0
(g21
g22
(g873
g41
tp1743
tp1744
Rp1745
sg13
g0
(g21
g22
(g873
g13
tp1746
tp1747
Rp1748
sg391
g0
(g21
g22
(g873
g391
tp1749
tp1750
Rp1751
sg111
g0
(g21
g22
(g873
g111
tp1752
tp1753
Rp1754
ssg0
(g4
g5
Ntp1755
Rp1756
(dp1757
g9
S'#F'
p1758
sb(dp1759
sg429
(dp1760
g125
g0
(g21
g22
(g429
g125
tp1761
tp1762
Rp1763
sg195
g0
(g21
g22
(g429
g195
tp1764
tp1765
Rp1766
sg443
g0
(g21
g22
(g429
g443
tp1767
tp1768
Rp1769
sg104
g0
(g21
g22
(g429
g104
tp1770
tp1771
Rp1772
sg139
g0
(g21
g22
(g429
g139
tp1773
tp1774
Rp1775
ssg0
(g4
g5
Ntp1776
Rp1777
(dp1778
g9
S'/wiki/List_of_musical_terminology'
p1779
sb(dp1780
sg146
(dp1781
g27
g0
(g21
g22
(g146
g27
tp1782
tp1783
Rp1784
sg13
g0
(g21
g22
(g146
g13
tp1785
tp1786
Rp1787
sg55
g0
(g21
g22
(g146
g55
tp1788
tp1789
Rp1790
sg132
g0
(g21
g22
(g146
g132
tp1791
tp1792
Rp1793
sg62
g0
(g21
g22
(g146
g62
tp1794
tp1795
Rp1796
sg90
g0
(g21
g22
(g146
g90
tp1797
tp1798
Rp1799
sg492
g0
(g21
g22
(g146
g492
tp1800
tp1801
Rp1802
sg76
g0
(g21
g22
(g146
g76
tp1803
tp1804
Rp1805
sg104
g0
(g21
g22
(g146
g104
tp1806
tp1807
Rp1808
sg111
g0
(g21
g22
(g146
g111
tp1809
tp1810
Rp1811
sg118
g0
(g21
g22
(g146
g118
tp1812
tp1813
Rp1814
sg421
g0
(g21
g22
(g146
g421
tp1815
tp1816
Rp1817
sg18
g0
(g21
g22
(g146
g18
tp1818
tp1819
Rp1820
sg139
g0
(g21
g22
(g146
g139
tp1821
tp1822
Rp1823
sg97
g0
(g21
g22
(g146
g97
tp1824
tp1825
Rp1826
sg69
g0
(g21
g22
(g146
g69
tp1827
tp1828
Rp1829
sg153
g0
(g21
g22
(g146
g153
tp1830
tp1831
Rp1832
sg83
g0
(g21
g22
(g146
g83
tp1833
tp1834
Rp1835
ssg674
(dp1836
g27
g0
(g21
g22
(g674
g27
tp1837
tp1838
Rp1839
sg13
g0
(g21
g22
(g674
g13
tp1840
tp1841
Rp1842
sg55
g0
(g21
g22
(g674
g55
tp1843
tp1844
Rp1845
sg62
g0
(g21
g22
(g674
g62
tp1846
tp1847
Rp1848
sg90
g0
(g21
g22
(g674
g90
tp1849
tp1850
Rp1851
sg69
g0
(g21
g22
(g674
g69
tp1852
tp1853
Rp1854
sg76
g0
(g21
g22
(g674
g76
tp1855
tp1856
Rp1857
sg104
g0
(g21
g22
(g674
g104
tp1858
tp1859
Rp1860
sg111
g0
(g21
g22
(g674
g111
tp1861
tp1862
Rp1863
sg118
g0
(g21
g22
(g674
g118
tp1864
tp1865
Rp1866
sg132
g0
(g21
g22
(g674
g132
tp1867
tp1868
Rp1869
sg18
g0
(g21
g22
(g674
g18
tp1870
tp1871
Rp1872
sg139
g0
(g21
g22
(g674
g139
tp1873
tp1874
Rp1875
sg97
g0
(g21
g22
(g674
g97
tp1876
tp1877
Rp1878
sg146
g0
(g21
g22
(g674
g146
tp1879
tp1880
Rp1881
sg153
g0
(g21
g22
(g674
g153
tp1882
tp1883
Rp1884
sg83
g0
(g21
g22
(g674
g83
tp1885
tp1886
Rp1887
ssg641
(dp1888
g475
g0
(g21
g22
(g641
g475
tp1889
tp1890
Rp1891
sg470
g0
(g21
g22
(g641
g470
tp1892
tp1893
Rp1894
sg41
g0
(g21
g22
(g641
g41
tp1895
tp1896
Rp1897
sg83
g0
(g21
g22
(g641
g83
tp1898
tp1899
Rp1900
sg482
g0
(g21
g22
(g641
g482
tp1901
tp1902
Rp1903
ssg273
(dp1904
g139
g0
(g21
g22
(g273
g139
tp1905
tp1906
Rp1907
sg111
g0
(g21
g22
(g273
g111
tp1908
tp1909
Rp1910
sg280
g0
(g21
g22
(g273
g280
tp1911
tp1912
Rp1913
ssg34
(dp1914
g41
g0
(g21
g22
(g34
g41
tp1915
tp1916
Rp1917
ssg0
(g4
g5
Ntp1918
Rp1919
(dp1920
g9
S'#G'
p1921
sb(dp1922
sg195
(dp1923
g18
g0
(g21
g22
(g195
g18
tp1924
tp1925
Rp1926
sg429
g0
(g21
g22
(g195
g429
tp1927
tp1928
Rp1929
ssg0
(g4
g5
Ntp1930
Rp1931
(dp1932
g9
S'/wiki/Release_technique'
p1933
sb(dp1934
g769
g0
(g21
g22
(g1931
g769
tp1935
tp1936
Rp1937
sg41
g0
(g21
g22
(g1931
g41
tp1938
tp1939
Rp1940
ssg0
(g4
g5
Ntp1941
Rp1942
(dp1943
g9
S'#R'
p1944
sb(dp1945
sg1701
(dp1946
g41
g0
(g21
g22
(g1701
g41
tp1947
tp1948
Rp1949
ssg769
(dp1950
sg0
(g4
g5
Ntp1951
Rp1952
(dp1953
g9
S'/wiki/Template:Index_footer'
p1954
sb(dp1955
g966
g0
(g21
g22
(g1952
g966
tp1956
tp1957
Rp1958
sstp1959
Rp1960
(dp1961
S'reverse_graph'
p1962
(dp1963
g13
(dp1964
g18
g172
sg97
g309
sg564
g573
sg90
g236
sg944
g1247
sg443
g1497
sg55
g365
sg146
g1787
sg125
g1429
sg76
g1436
sg111
g523
sg132
g918
sg1534
g1543
sg83
g739
sg450
g462
sg62
g1630
sg391
g887
sg674
g1842
sg1003
g1015
sg1037
g1046
sg1048
g1057
sg153
g1365
sg118
g1073
sg69
g1134
sg873
g1748
ssg223
(dp1965
sg90
(dp1966
g55
g377
sg146
g1799
sg83
g703
sg27
g668
sg564
g585
sg62
g1633
sg76
g1445
sg118
g1082
sg97
g318
sg153
g1332
sg160
g1607
sg111
g526
sg125
g1396
sg18
g184
sg132
g921
sg1534
g1555
sg674
g1851
sg69
g1146
sg13
g95
ssg76
(dp1967
g55
g383
sg146
g1805
sg13
g81
sg18
g190
sg564
g598
sg62
g1651
sg111
g535
sg118
g1088
sg97
g327
sg153
g1338
sg391
g845
sg125
g1399
sg132
g927
sg1534
g1564
sg674
g1857
sg69
g1149
sg83
g709
ssg252
(dp1968
sg260
(dp1969
sg966
(dp1970
g1952
g1958
ssg139
(dp1971
g18
g212
sg13
g144
sg1534
g1582
sg564
g616
sg590
g795
sg1181
g1187
sg290
g1234
sg429
g1775
sg280
g299
sg97
g349
sg55
g405
sg837
g1304
sg125
g1411
sg76
g1469
sg111
g553
sg132
g903
sg27
g662
sg83
g685
sg450
g456
sg62
g1636
sg90
g242
sg866
g1732
sg391
g829
sg48
g267
sg146
g1823
sg674
g1875
sg1003
g1009
sg1037
g1043
sg153
g1359
sg160
g1601
sg118
g1106
sg273
g1907
sg69
g1173
ssg280
(dp1972
g139
g285
sg866
g1735
sg273
g1913
sg290
g1243
sg450
g459
ssg55
(dp1973
g590
g801
sg18
g175
sg146
g1790
sg13
g60
sg1534
g1546
sg564
g576
sg62
g1642
sg111
g510
sg76
g1433
sg69
g1137
sg97
g312
sg153
g1323
sg160
g1598
sg118
g1070
sg125
g1381
sg132
g909
sg674
g1845
sg436
g973
sg83
g715
ssg416
(dp1974
g62
g1687
ssg1499
(dp1975
sg470
(dp1976
g132
g939
sg837
g1301
sg641
g1894
sg482
g636
sg83
g694
ssg492
(dp1977
g146
g1802
ssg497
(dp1978
sg111
(dp1979
g18
g203
sg13
g116
sg1534
g1552
sg564
g582
sg90
g239
sg821
g1029
sg290
g1240
sg139
g288
sg97
g358
sg55
g374
sg146
g1811
sg125
g1390
sg76
g1460
sg332
g1506
sg62
g1657
sg132
g952
sg27
g665
sg83
g700
sg512
g764
sg391
g848
sg436
g982
sg674
g1863
sg252
g258
sg273
g1910
sg153
g1329
sg118
g1097
sg69
g1143
sg873
g1754
ssg421
(dp1980
g62
g1681
sg146
g1817
sg416
g426
sg859
g1728
ssg482
(dp1981
g837
g1310
sg470
g487
sg83
g733
sg475
g751
sg132
g958
sg641
g1903
ssg332
(dp1982
g564
g604
sg97
g337
sg1534
g1570
ssg27
(dp1983
g837
g1280
sg55
g362
sg146
g1784
sg13
g32
sg18
g169
sg564
g570
sg62
g1666
sg90
g230
sg76
g1439
sg118
g1076
sg97
g306
sg153
g1317
sg111
g504
sg125
g1369
sg132
g900
sg1534
g1540
sg674
g1839
sg69
g1131
sg83
g691
ssg83
(dp1984
g18
g187
sg13
g88
sg564
g588
sg475
g754
sg97
g321
sg55
g380
sg837
g1292
sg470
g490
sg76
g1448
sg111
g529
sg132
g964
sg482
g639
sg1534
g1558
sg62
g1669
sg391
g854
sg146
g1835
sg674
g1887
sg641
g1900
sg153
g1335
sg118
g1085
sg125
g1393
sg69
g1179
ssg512
(dp1985
g132
g912
sg160
g1616
sg111
g517
sg62
g1672
sg436
g979
ssg776
(dp1986
g837
g1289
ssg803
(dp1987
sg391
(dp1988
g450
g465
sg55
g396
sg62
g1678
sg859
g1719
sg821
g1032
sg1181
g1190
sg873
g1751
ssg1519
(dp1989
sg48
(dp1990
g13
g53
ssg436
(dp1991
g512
g767
sg111
g556
sg104
g441
ssg1003
(dp1992
g1017
g1127
ssg995
(dp1993
sg990
(dp1994
sg1037
(dp1995
sg1048
(dp1996
g1037
g1053
ssg1524
(dp1997
sg1063
(dp1998
sg118
(dp1999
g55
g399
sg146
g1814
sg13
g123
sg18
g206
sg564
g607
sg62
g1699
sg111
g544
sg76
g1451
sg97
g340
sg153
g1350
sg391
g893
sg125
g1408
sg132
g936
sg1534
g1573
sg674
g1866
sg69
g1164
sg83
g718
ssg1117
(dp2000
sg1017
(dp2001
g1003
g1022
sg859
g1725
ssg69
(dp2002
g837
g1295
sg55
g408
sg13
g74
sg18
g215
sg564
g622
sg62
g1709
sg111
g532
sg776
g785
sg76
g1472
sg118
g1109
sg97
g324
sg153
g1362
sg391
g896
sg125
g1378
sg132
g924
sg1534
g1588
sg674
g1854
sg741
g747
sg146
g1829
sg83
g706
ssg1192
(dp2003
sg1197
(dp2004
sg1534
(dp2005
sg1207
(dp2006
sg1212
(dp2007
sg1217
(dp2008
sg1222
(dp2009
sg1227
(dp2010
sg1249
(dp2011
sg1254
(dp2012
sg160
(dp2013
g837
g1277
sg512
g761
sg90
g245
sg391
g832
sg62
g1639
sg436
g976
sg13
g165
ssg1264
(dp2014
sg837
(dp2015
g391
g842
sg443
g1482
ssg153
(dp2016
g55
g411
sg146
g1832
sg13
g158
sg18
g218
sg564
g625
sg62
g1696
sg111
g559
sg83
g736
sg76
g1475
sg97
g355
sg391
g890
sg125
g1426
sg132
g961
sg1534
g1591
sg674
g1884
sg69
g1176
sg118
g1112
ssg125
(dp2017
g1017
g1124
sg62
g1648
sg13
g130
sg429
g1763
sg160
g1604
ssg247
(dp2018
sg104
(dp2019
g443
g1491
sg55
g389
sg429
g1772
sg146
g1808
sg13
g109
sg18
g178
sg564
g601
sg62
g1654
sg111
g538
sg76
g1457
sg590
g789
sg97
g330
sg153
g1344
sg160
g1610
sg118
g1094
sg125
g1402
sg132
g930
sg1534
g1567
sg674
g1860
sg69
g1155
sg83
g712
ssg648
(dp2020
sg62
(dp2021
g837
g1286
sg55
g371
sg859
g1716
sg146
g1796
sg13
g67
sg18
g181
sg564
g579
sg111
g520
sg776
g782
sg76
g1442
sg118
g1079
sg97
g315
sg153
g1326
sg873
g1742
sg391
g857
sg125
g1387
sg132
g915
sg1534
g1549
sg674
g1848
sg69
g1140
sg83
g697
ssg132
(dp2022
g55
g402
sg146
g1793
sg13
g137
sg69
g1167
sg18
g209
sg564
g610
sg62
g1660
sg76
g1463
sg118
g1100
sg97
g343
sg153
g1353
sg111
g547
sg125
g1384
sg1534
g1576
sg674
g1869
sg436
g985
sg83
g727
ssg654
(dp2023
g27
g659
sg62
g1663
sg391
g851
sg821
g1026
ssg1529
(dp2024
sg1202
(dp2025
sg1259
(dp2026
sg1514
(dp2027
sg859
(dp2028
g62
g1675
sg391
g864
ssg866
(dp2029
g391
g871
ssg873
(dp2030
g125
g1405
sg62
g1712
sg391
g878
sg160
g1613
ssg1756
(dp2031
sg429
(dp2032
g995
g1001
sg160
g1619
sg195
g1929
sg62
g1684
sg104
g434
sg125
g1417
sg443
g1494
ssg1777
(dp2033
sg674
(dp2034
g837
g1307
sg83
g679
sg391
g881
ssg641
(dp2035
g837
g1313
sg475
g757
sg482
g646
sg132
g906
sg83
g688
ssg273
(dp2036
g139
g278
sg866
g1738
sg280
g302
sg290
g1237
sg450
g468
ssg34
(dp2037
g13
g39
ssg1919
(dp2038
sg195
(dp2039
g18
g200
sg429
g1766
ssg1931
(dp2040
sg1701
(dp2041
g62
g1706
ssg769
(dp2042
g512
g774
sg1931
g1937
ssg18
(dp2043
g55
g368
sg146
g1820
sg13
g25
sg1534
g1579
sg564
g613
sg62
g1627
sg111
g550
sg76
g1466
sg118
g1103
sg97
g346
sg153
g1356
sg195
g1926
sg391
g810
sg125
g1414
sg132
g942
sg674
g1872
sg69
g1170
sg83
g724
ssg944
(dp2044
g132
g949
ssg97
(dp2045
g332
g1509
sg55
g386
sg146
g1826
sg13
g102
sg18
g193
sg564
g619
sg62
g1693
sg111
g562
sg118
g1091
sg76
g1454
sg153
g1341
sg391
g813
sg125
g1420
sg132
g955
sg1534
g1585
sg674
g1878
sg69
g1152
sg83
g730
ssg146
(dp2046
g55
g414
sg83
g682
sg27
g671
sg564
g628
sg62
g1645
sg76
g1478
sg118
g1115
sg97
g352
sg153
g1347
sg111
g541
sg125
g1372
sg18
g221
sg132
g933
sg1534
g1594
sg674
g1881
sg69
g1161
sg13
g151
ssg564
(dp2047
g391
g816
sg590
g792
ssg290
(dp2048
g139
g295
ssg590
(dp2049
g564
g595
sg391
g819
sg1534
g1561
ssg741
(dp2050
sg41
(dp2051
g13
g46
sg590
g798
sg821
g1035
sg443
g1488
sg125
g1375
sg111
g507
sg654
g1061
sg332
g1512
sg62
g1690
sg859
g1722
sg90
g233
sg873
g1745
sg48
g270
sg436
g988
sg641
g1897
sg1003
g1012
sg34
g1917
sg153
g1320
sg1931
g1940
sg1701
g1949
sg69
g1158
sg391
g884
ssg821
(dp2052
g391
g826
ssg1181
(dp2053
g837
g1298
ssg475
(dp2054
g837
g1283
sg470
g480
sg641
g1891
sg482
g633
sg83
g721
ssg443
(dp2055
g125
g1423
sg160
g1622
sg837
g1271
sg429
g1769
sg104
g448
ssg450
(dp2056
g837
g1274
sg391
g835
sg443
g1485
ssg7
(dp2057
sg1942
(dp2058
sg1952
(dp2059
ssb.