(lp0
S'/wiki/Index_of_standards_articles'
p1
aS'/wiki/Index_of_literature_articles'
p2
aS'/wiki/Index_of_architecture_articles'
p3
aS'/wiki/Index_of_painting-related_articles'
p4
aS'/wiki/Index_of_dance_articles'
p5
aS'/wiki/Index_of_video-related_articles'
p6
aS'/wiki/Index_of_music_articles'
p7
aS'/wiki/Index_of_sound_art-related_articles'
p8
aS'/wiki/Index_of_Babylon_5_articles'
p9
aS'/wiki/Index_of_Buffy_the_Vampire_Slayer-related_articles'
p10
aS'/wiki/Index_of_Dune-related_articles'
p11
aS'/wiki/Index_of_World_of_Darkness_articles'
p12
aS'/wiki/Index_of_game-related_articles'
p13
aS'/wiki/Index_of_MS-DOS_games'
p14
aS'/wiki/Index_of_MS-DOS_games_(0-9)'
p15
aS'/wiki/Index_of_MS-DOS_games_(A)'
p16
aS'/wiki/Index_of_MS-DOS_games_(B)'
p17
aS'/wiki/Index_of_MS-DOS_games_(C)'
p18
aS'/wiki/Index_of_MS-DOS_games_(D)'
p19
aS'/wiki/Index_of_MS-DOS_games_(E)'
p20
aS'/wiki/Index_of_MS-DOS_games_(F)'
p21
aS'/wiki/Index_of_MS-DOS_games_(G)'
p22
aS'/wiki/Index_of_MS-DOS_games_(H)'
p23
aS'/wiki/Index_of_MS-DOS_games_(I)'
p24
aS'/wiki/Index_of_MS-DOS_games_(J)'
p25
aS'/wiki/Index_of_MS-DOS_games_(K)'
p26
aS'/wiki/Index_of_MS-DOS_games_(L)'
p27
aS'/wiki/Index_of_MS-DOS_games_(M)'
p28
aS'/wiki/Index_of_MS-DOS_games_(N)'
p29
aS'/wiki/Index_of_MS-DOS_games_(O)'
p30
aS'/wiki/Index_of_MS-DOS_games_(P)'
p31
aS'/wiki/Index_of_MS-DOS_games_(Q)'
p32
aS'/wiki/Index_of_MS-DOS_games_(R)'
p33
aS'/wiki/Index_of_MS-DOS_games_(S)'
p34
aS'/wiki/Index_of_MS-DOS_games_(T)'
p35
aS'/wiki/Index_of_MS-DOS_games_(U)'
p36
aS'/wiki/Index_of_MS-DOS_games_(V)'
p37
aS'/wiki/Index_of_MS-DOS_games_(W)'
p38
aS'/wiki/Index_of_MS-DOS_games_(X)'
p39
aS'/wiki/Index_of_MS-DOS_games_(Y)'
p40
aS'/wiki/Index_of_MS-DOS_games_(Z)'
p41
aS'/wiki/Index_of_Windows_games'
p42
aS'/wiki/Index_of_Windows_games_(0-9)'
p43
aS'/wiki/Index_of_Windows_games_(A)'
p44
aS'/wiki/Index_of_Windows_games_(B)'
p45
aS'/wiki/Index_of_Windows_games_(C)'
p46
aS'/wiki/Index_of_Windows_games_(D)'
p47
aS'/wiki/Index_of_Windows_games_(E)'
p48
aS'/wiki/Index_of_Windows_games_(F)'
p49
aS'/wiki/Index_of_Windows_games_(G)'
p50
aS'/wiki/Index_of_Windows_games_(H)'
p51
aS'/wiki/Index_of_Windows_games_(I)'
p52
aS'/wiki/Index_of_Windows_games_(J)'
p53
aS'/wiki/Index_of_Windows_games_(K)'
p54
aS'/wiki/Index_of_Windows_games_(L)'
p55
aS'/wiki/Index_of_Windows_games_(M)'
p56
aS'/wiki/Index_of_Windows_games_(N)'
p57
aS'/wiki/Index_of_Windows_games_(O)'
p58
aS'/wiki/Index_of_Windows_games_(P)'
p59
aS'/wiki/Index_of_Windows_games_(Q)'
p60
aS'/wiki/Index_of_Windows_games_(R)'
p61
aS'/wiki/Index_of_Windows_games_(S)'
p62
aS'/wiki/Index_of_Windows_games_(T)'
p63
aS'/wiki/Index_of_Windows_games_(U)'
p64
aS'/wiki/Index_of_Windows_games_(V)'
p65
aS'/wiki/Index_of_Windows_games_(W)'
p66
aS'/wiki/Index_of_Windows_games_(X)'
p67
aS'/wiki/Index_of_Windows_games_(Y)'
p68
aS'/wiki/Index_of_Windows_games_(Z)'
p69
aS'/wiki/Index_of_basketball-related_articles'
p70
aS'/wiki/Index_of_surfing_articles'
p71
aS'/wiki/Index_of_fashion_topics'
p72
aS'/wiki/Index_of_climbing_topics'
p73
aS'/wiki/Index_of_China-related_articles'
p74
aS'/wiki/Index_of_Cantonese-related_articles'
p75
aS'/wiki/Index_of_geography_articles'
p76
aS'/wiki/Index_of_Africa-related_articles'
p77
aS'/wiki/Index_of_Asia-related_articles'
p78
aS'/wiki/Index_of_Europe-related_articles'
p79
aS'/wiki/Index_of_Australia-related_articles'
p80
aS'/wiki/Index_of_Africa-related_articles'
p81
aS'/wiki/Index_of_Benin-related_articles'
p82
aS'/wiki/Index_of_Burkina_Faso-related_articles'
p83
aS'/wiki/Index_of_Cape_Verde-related_articles'
p84
aS'/wiki/Index_of_C%C3%B4te_d%27Ivoire-related_articles'
p85
aS'/wiki/Index_of_Gambia-related_articles'
p86
aS'/wiki/Index_of_Ghana-related_articles'
p87
aS'/wiki/Index_of_Guinea-related_articles'
p88
aS'/wiki/Index_of_Guinea-Bissau-related_articles'
p89
aS'/wiki/Index_of_Liberia-related_articles'
p90
aS'/wiki/Index_of_Mali-related_articles'
p91
aS'/wiki/Index_of_Mauritania-related_articles'
p92
aS'/wiki/Index_of_Nigeria-related_articles'
p93
aS'/wiki/Index_of_Senegal-related_articles'
p94
aS'/wiki/Index_of_Sierra_Leone-related_articles'
p95
aS'/wiki/Index_of_Togo-related_articles'
p96
aS'/wiki/Index_of_Algeria-related_articles'
p97
aS'/wiki/Index_of_Egypt-related_articles'
p98
aS'/wiki/Index_of_Libya-related_articles'
p99
aS'/wiki/Index_of_Mauritania-related_articles'
p100
aS'/wiki/Index_of_Tunisia-related_articles'
p101
aS'/wiki/Index_of_Angola-related_articles'
p102
aS'/wiki/Index_of_Burundi-related_articles'
p103
aS'/wiki/Index_of_Cameroon-related_articles'
p104
aS'/wiki/Index_of_Equatorial_Guinea-related_articles'
p105
aS'/wiki/Index_of_Gabon-related_articles'
p106
aS'/wiki/Index_of_Rwanda-related_articles'
p107
aS'/wiki/Index_of_Burundi-related_articles'
p108
aS'/wiki/Index_of_Comoros-related_articles'
p109
aS'/wiki/Index_of_Djibouti-related_articles'
p110
aS'/wiki/Index_of_Eritrea-related_articles'
p111
aS'/wiki/Index_of_Ethiopia-related_articles'
p112
aS'/wiki/Index_of_Kenya-related_articles'
p113
aS'/wiki/Index_of_Madagascar-related_articles'
p114
aS'/wiki/Index_of_Malawi-related_articles'
p115
aS'/wiki/Index_of_Mauritius-related_articles'
p116
aS'/wiki/Index_of_Mozambique-related_articles'
p117
aS'/wiki/Index_of_Rwanda-related_articles'
p118
aS'/wiki/Index_of_Somalia-related_articles'
p119
aS'/wiki/Index_of_Tanzania-related_articles'
p120
aS'/wiki/Index_of_Uganda-related_articles'
p121
aS'/wiki/Index_of_Zambia-related_articles'
p122
aS'/wiki/Index_of_Zimbabwe-related_articles'
p123
aS'/wiki/Index_of_Lesotho-related_articles'
p124
aS'/wiki/Index_of_Namibia-related_articles'
p125
aS'/wiki/Index_of_Swaziland-related_articles'
p126
aS'/wiki/Index_of_Asia-related_articles'
p127
aS'/wiki/Index_of_Kazakhstan-related_articles'
p128
aS'/wiki/Index_of_Kyrgyzstan-related_articles'
p129
aS'/wiki/Index_of_Tajikistan-related_articles'
p130
aS'/wiki/Index_of_Turkmenistan-related_articles'
p131
aS'/wiki/Index_of_Uzbekistan-related_articles'
p132
aS'/wiki/Index_of_China-related_articles'
p133
aS'/wiki/Index_of_China-related_articles_(0%E2%80%93L)'
p134
aS'/wiki/Index_of_China-related_articles_(M%E2%80%93Z)'
p135
aS'/wiki/Index_of_Tibet-related_articles'
p136
aS'/wiki/Index_of_Hong_Kong-related_articles'
p137
aS'/wiki/Index_of_Macau-related_articles'
p138
aS'/wiki/Index_of_Japan-related_articles'
p139
aS'/wiki/Index_of_Japan-related_articles_(0-9)'
p140
aS'/wiki/Index_of_Japan-related_articles_(A)'
p141
aS'/wiki/Index_of_Japan-related_articles_(B)'
p142
aS'/wiki/Index_of_Japan-related_articles_(C)'
p143
aS'/wiki/Index_of_Japan-related_articles_(D)'
p144
aS'/wiki/Index_of_Japan-related_articles_(E)'
p145
aS'/wiki/Index_of_Japan-related_articles_(F)'
p146
aS'/wiki/Index_of_Japan-related_articles_(G)'
p147
aS'/wiki/Index_of_Japan-related_articles_(H)'
p148
aS'/wiki/Index_of_Japan-related_articles_(I)'
p149
aS'/wiki/Index_of_Japan-related_articles_(J)'
p150
aS'/wiki/Index_of_Japan-related_articles_(K)'
p151
aS'/wiki/Index_of_Japan-related_articles_(L)'
p152
aS'/wiki/Index_of_Japan-related_articles_(M)'
p153
aS'/wiki/Index_of_Japan-related_articles_(N)'
p154
aS'/wiki/Index_of_Japan-related_articles_(O)'
p155
aS'/wiki/Index_of_Japan-related_articles_(P)'
p156
aS'/wiki/Index_of_Japan-related_articles_(Q-R)'
p157
aS'/wiki/Index_of_Japan-related_articles_(Q-R)'
p158
aS'/wiki/Index_of_Japan-related_articles_(S)'
p159
aS'/wiki/Index_of_Japan-related_articles_(T)'
p160
aS'/wiki/Index_of_Japan-related_articles_(U-V)'
p161
aS'/wiki/Index_of_Japan-related_articles_(U-V)'
p162
aS'/wiki/Index_of_Japan-related_articles_(W-X)'
p163
aS'/wiki/Index_of_Japan-related_articles_(W-X)'
p164
aS'/wiki/Index_of_Japan-related_articles_(Y-Z)'
p165
aS'/wiki/Index_of_Japan-related_articles_(Y-Z)'
p166
aS'/wiki/Index_of_Korea-related_articles'
p167
aS'/wiki/Index_of_Korea-related_articles_(0-9)'
p168
aS'/wiki/Index_of_Korea-related_articles_(A)'
p169
aS'/wiki/Index_of_Korea-related_articles_(B)'
p170
aS'/wiki/Index_of_Korea-related_articles_(C)'
p171
aS'/wiki/Index_of_Korea-related_articles_(D)'
p172
aS'/wiki/Index_of_Korea-related_articles_(E)'
p173
aS'/wiki/Index_of_Korea-related_articles_(F)'
p174
aS'/wiki/Index_of_Korea-related_articles_(G)'
p175
aS'/wiki/Index_of_Korea-related_articles_(H)'
p176
aS'/wiki/Index_of_Korea-related_articles_(I)'
p177
aS'/wiki/Index_of_Korea-related_articles_(J)'
p178
aS'/wiki/Index_of_Korea-related_articles_(K)'
p179
aS'/wiki/Index_of_Korea-related_articles_(L)'
p180
aS'/wiki/Index_of_Korea-related_articles_(M)'
p181
aS'/wiki/Index_of_Korea-related_articles_(N)'
p182
aS'/wiki/Index_of_Korea-related_articles_(O)'
p183
aS'/wiki/Index_of_Korea-related_articles_(P)'
p184
aS'/wiki/Index_of_Korea-related_articles_(Q)'
p185
aS'/wiki/Index_of_Korea-related_articles_(R)'
p186
aS'/wiki/Index_of_Korea-related_articles_(S)'
p187
aS'/wiki/Index_of_Korea-related_articles_(T)'
p188
aS'/wiki/Index_of_Korea-related_articles_(U)'
p189
aS'/wiki/Index_of_Korea-related_articles_(V)'
p190
aS'/wiki/Index_of_Korea-related_articles_(W)'
p191
aS'/wiki/Index_of_Korea-related_articles_(X)'
p192
aS'/wiki/Index_of_Korea-related_articles_(Y)'
p193
aS'/wiki/Index_of_Korea-related_articles_(Z)'
p194
aS'/wiki/Index_of_North_Korea-related_articles'
p195
aS'/wiki/Index_of_South_Korea-related_articles'
p196
aS'/wiki/Index_of_Mongolia-related_articles'
p197
aS'/wiki/Index_of_Taiwan-related_articles'
p198
aS'/wiki/Index_of_Brunei-related_articles'
p199
aS'/wiki/Index_of_Burma-related_articles'
p200
aS'/wiki/Index_of_Cambodia-related_articles'
p201
aS'/wiki/Index_of_East_Timor-related_articles'
p202
aS'/wiki/Index_of_Indonesia-related_articles'
p203
aS'/wiki/Index_of_Laos-related_articles'
p204
aS'/wiki/Index_of_Malaysia-related_articles'
p205
aS'/wiki/Index_of_Philippines-related_articles'
p206
aS'/wiki/Index_of_Singapore-related_articles'
p207
aS'/wiki/Index_of_Thailand-related_articles'
p208
aS'/wiki/Index_of_Vietnam-related_articles'
p209
aS'/wiki/Index_of_Afghanistan-related_articles'
p210
aS'/wiki/Index_of_Bangladesh-related_articles'
p211
aS'/wiki/Index_of_Bhutan-related_articles'
p212
aS'/wiki/Index_of_India-related_articles'
p213
aS'/wiki/Index_of_Iran-related_articles'
p214
aS'/wiki/Index_of_Maldives-related_articles'
p215
aS'/wiki/Index_of_Nepal-related_articles'
p216
aS'/wiki/Index_of_Pakistan-related_articles'
p217
aS'/wiki/Index_of_Armenia-related_articles'
p218
aS'/wiki/Index_of_Azerbaijan-related_articles'
p219
aS'/wiki/Index_of_Bahrain-related_articles'
p220
aS'/wiki/Index_of_Cyprus-related_articles'
p221
aS'/wiki/Index_of_Georgia_(country)-related_articles'
p222
aS'/wiki/Index_of_Iraq-related_articles'
p223
aS'/wiki/Index_of_Jordan-related_articles'
p224
aS'/wiki/Index_of_Kuwait-related_articles'
p225
aS'/wiki/Index_of_Lebanon-related_articles'
p226
aS'/wiki/Index_of_Oman-related_articles'
p227
aS'/wiki/Index_of_Qatar-related_articles'
p228
aS'/wiki/Index_of_Saudi_Arabia-related_articles'
p229
aS'/wiki/Index_of_Syria-related_articles'
p230
aS'/wiki/Index_of_Turkey-related_articles'
p231
aS'/wiki/Index_of_United_Arab_Emirates-related_articles'
p232
aS'/wiki/Index_of_Yemen-related_articles'
p233
aS'/wiki/Index_of_Georgia_(country)-related_articles'
p234
aS'/wiki/Index_of_Armenia-related_articles'
p235
aS'/wiki/Index_of_Azerbaijan-related_articles'
p236
aS'/wiki/Index_of_Nagorno-Karabakh-related_articles'
p237
aS'/wiki/Index_of_Europe-related_articles'
p238
aS'/wiki/Index_of_Akrotiri_and_Dhekelia-related_articles'
p239
aS'/wiki/Index_of_%C3%85land-related_articles'
p240
aS'/wiki/Index_of_Albania-related_articles'
p241
aS'/wiki/Index_of_Andorra-related_articles'
p242
aS'/wiki/Index_of_Armenia-related_articles'
p243
aS'/wiki/Index_of_Austria-related_articles'
p244
aS'/wiki/Index_of_Azerbaijan-related_articles'
p245
aS'/wiki/Index_of_Belarus-related_articles'
p246
aS'/wiki/Index_of_Belgium-related_articles'
p247
aS'/wiki/Index_of_Bosnia_and_Herzegovina-related_articles'
p248
aS'/wiki/Index_of_Croatia-related_articles'
p249
aS'/wiki/Index_of_Cyprus-related_articles'
p250
aS'/wiki/Index_of_Czech_Republic-related_articles'
p251
aS'/wiki/Index_of_Denmark-related_articles'
p252
aS'/wiki/Index_of_Estonia-related_articles'
p253
aS'/wiki/Index_of_Finland-related_articles'
p254
aS'/wiki/Index_of_Georgia_(country)-related_articles'
p255
aS'/wiki/Index_of_Germany-related_articles'
p256
aS'/wiki/Index_of_Greece-related_articles'
p257
aS'/wiki/Index_of_Guernsey-related_articles'
p258
aS'/wiki/Index_of_Hungary-related_articles'
p259
aS'/wiki/Index_of_Iceland-related_articles'
p260
aS'/wiki/Index_of_Republic_of_Ireland-related_articles'
p261
aS'/wiki/Index_of_Italy-related_articles'
p262
aS'/wiki/Index_of_Kazakhstan-related_articles'
p263
aS'/wiki/Index_of_Malta-related_articles'
p264
aS'/wiki/Index_of_Moldova-related_articles'
p265
aS'/wiki/Index_of_Monaco-related_articles'
p266
aS'/wiki/Index_of_Portugal-related_articles'
p267
aS'/wiki/Index_of_Romania-related_articles'
p268
aS'/wiki/Index_of_San_Marino-related_articles'
p269
aS'/wiki/Index_of_Spain-related_articles'
p270
aS'/wiki/Index_of_Switzerland-related_articles'
p271
aS'/wiki/Index_of_Turkey-related_articles'
p272
aS'/wiki/Index_of_United_Kingdom-related_articles'
p273
aS'/wiki/Index_of_Vatican_City-related_articles'
p274
aS'/wiki/Index_of_Canada-related_articles'
p275
aS'/wiki/Index_of_British_Columbia-related_articles'
p276
aS'/wiki/Index_of_Aboriginal_Canadian-related_articles'
p277
aS'/wiki/Index_of_Greenland-related_articles'
p278
aS'/wiki/Index_of_Mexico-related_articles'
p279
aS'/wiki/Index_of_Saint_Pierre_and_Miquelon-related_articles'
p280
aS'/wiki/Index_of_United_States-related_articles'
p281
aS'/wiki/Index_of_Alabama-related_articles'
p282
aS'/wiki/Index_of_Alaska-related_articles'
p283
aS'/wiki/Index_of_Arizona-related_articles'
p284
aS'/wiki/Index_of_Arkansas-related_articles'
p285
aS'/wiki/Index_of_California-related_articles'
p286
aS'/wiki/Index_of_Colorado-related_articles'
p287
aS'/wiki/Index_of_Connecticut-related_articles'
p288
aS'/wiki/Index_of_Delaware-related_articles'
p289
aS'/wiki/Index_of_Florida-related_articles'
p290
aS'/wiki/Index_of_Georgia_(U.S._state)-related_articles'
p291
aS'/wiki/Index_of_Hawaii-related_articles'
p292
aS'/wiki/Index_of_Idaho-related_articles'
p293
aS'/wiki/Index_of_Illinois-related_articles'
p294
aS'/wiki/Index_of_Indiana-related_articles'
p295
aS'/wiki/Index_of_Iowa-related_articles'
p296
aS'/wiki/Index_of_Montana-related_articles'
p297
aS'/wiki/Index_of_Kansas-related_articles'
p298
aS'/wiki/Index_of_Kentucky-related_articles'
p299
aS'/wiki/Index_of_Louisiana-related_articles'
p300
aS'/wiki/Index_of_Maine-related_articles'
p301
aS'/wiki/Index_of_Maryland-related_articles'
p302
aS'/wiki/Index_of_Massachusetts-related_articles'
p303
aS'/wiki/Index_of_Michigan-related_articles'
p304
aS'/wiki/Index_of_Minnesota-related_articles'
p305
aS'/wiki/Index_of_Mississippi-related_articles'
p306
aS'/wiki/Index_of_Missouri-related_articles'
p307
aS'/wiki/Index_of_Nebraska-related_articles'
p308
aS'/wiki/Index_of_Nevada-related_articles'
p309
aS'/wiki/Index_of_New_Hampshire-related_articles'
p310
aS'/wiki/Index_of_New_Jersey-related_articles'
p311
aS'/wiki/Index_of_New_Mexico-related_articles'
p312
aS'/wiki/Index_of_New_York-related_articles'
p313
aS'/wiki/Index_of_North_Carolina-related_articles'
p314
aS'/wiki/Index_of_North_Dakota-related_articles'
p315
aS'/wiki/Index_of_Ohio-related_articles'
p316
aS'/wiki/Index_of_Oklahoma-related_articles'
p317
aS'/wiki/Index_of_Oregon-related_articles'
p318
aS'/wiki/Index_of_Pennsylvania-related_articles'
p319
aS'/wiki/Index_of_Rhode_Island-related_articles'
p320
aS'/wiki/Index_of_South_Carolina-related_articles'
p321
aS'/wiki/Index_of_South_Dakota-related_articles'
p322
aS'/wiki/Index_of_Tennessee-related_articles'
p323
aS'/wiki/Index_of_Texas-related_articles'
p324
aS'/wiki/Index_of_Utah-related_articles'
p325
aS'/wiki/Index_of_Vermont-related_articles'
p326
aS'/wiki/Index_of_Virginia-related_articles'
p327
aS'/wiki/Index_of_Washington-related_articles'
p328
aS'/wiki/Index_of_West_Virginia-related_articles'
p329
aS'/wiki/Index_of_Wisconsin-related_articles'
p330
aS'/wiki/Index_of_Wyoming-related_articles'
p331
aS'/wiki/Index_of_District_of_Columbia-related_articles'
p332
aS'/wiki/Index_of_U.S._counties'
p333
aS'/wiki/Index_of_African_American-related_articles'
p334
aS'/wiki/Index_of_Asian_American-related_articles'
p335
aS'/wiki/Index_of_Belize-related_articles'
p336
aS'/wiki/Index_of_Costa_Rica-related_articles'
p337
aS'/wiki/Index_of_El_Salvador-related_articles'
p338
aS'/wiki/Index_of_Guatemala-related_articles'
p339
aS'/wiki/Index_of_Honduras-related_articles'
p340
aS'/wiki/Index_of_Nicaragua-related_articles'
p341
aS'/wiki/Index_of_Panama-related_articles'
p342
aS'/wiki/Index_of_Anguilla-related_articles'
p343
aS'/wiki/Index_of_Antigua_and_Barbuda-related_articles'
p344
aS'/wiki/Index_of_Aruba-related_articles'
p345
aS'/wiki/Index_of_Bahamas-related_articles'
p346
aS'/wiki/Index_of_Barbados-related_articles'
p347
aS'/wiki/Index_of_Bermuda-related_articles'
p348
aS'/wiki/Index_of_Cayman_Islands-related_articles'
p349
aS'/wiki/Index_of_Cuba-related_articles'
p350
aS'/wiki/Index_of_Dominica-related_articles'
p351
aS'/wiki/Index_of_Dominican_Republic-related_articles'
p352
aS'/wiki/Index_of_Grenada-related_articles'
p353
aS'/wiki/Index_of_Haiti-related_articles'
p354
aS'/wiki/Index_of_Jamaica-related_articles'
p355
aS'/wiki/Index_of_Montserrat-related_articles'
p356
aS'/wiki/Index_of_Netherlands_Antilles-related_articles'
p357
aS'/wiki/Index_of_Puerto_Rico-related_articles'
p358
aS'/wiki/Index_of_Saint_Barth%C3%A9lemy-related_articles'
p359
aS'/wiki/Index_of_Saint_Kitts_and_Nevis-related_articles'
p360
aS'/wiki/Index_of_Saint_Lucia-related_articles'
p361
aS'/wiki/Index_of_Saint_Vincent_and_the_Grenadines-related_articles'
p362
aS'/wiki/Index_of_Trinidad_and_Tobago-related_articles'
p363
aS'/wiki/Index_of_Turks_and_Caicos_Islands-related_articles'
p364
aS'/wiki/Index_of_United_States_Virgin_Islands-related_articles'
p365
aS'/wiki/Index_of_Australia-related_articles'
p366
aS'/wiki/Index_of_Australia-related_articles'
p367
aS'/wiki/Index_of_Christmas_Island-related_articles'
p368
aS'/wiki/Index_of_Cocos_(Keeling)_Islands-related_articles'
p369
aS'/wiki/Index_of_Fiji-related_articles'
p370
aS'/wiki/Index_of_Indonesia-related_articles'
p371
aS'/wiki/Index_of_Vanuatu-related_articles'
p372
aS'/wiki/Index_of_Federated_States_of_Micronesia-related_articles'
p373
aS'/wiki/Index_of_Guam-related_articles'
p374
aS'/wiki/Index_of_Marshall_Islands-related_articles'
p375
aS'/wiki/Index_of_Nauru-related_articles'
p376
aS'/wiki/Index_of_Northern_Mariana_Islands-related_articles'
p377
aS'/wiki/Index_of_Palau-related_articles'
p378
aS'/wiki/Index_of_American_Samoa-related_articles'
p379
aS'/wiki/Index_of_Cook_Islands-related_articles'
p380
aS'/wiki/Index_of_French_Polynesia-related_articles'
p381
aS'/wiki/Index_of_Hawaii-related_articles'
p382
aS'/wiki/Index_of_Tokelau-related_articles'
p383
aS'/wiki/Index_of_Argentina-related_articles'
p384
aS'/wiki/Index_of_Bolivia-related_articles'
p385
aS'/wiki/Index_of_Brazil-related_articles'
p386
aS'/wiki/Index_of_Chile-related_articles'
p387
aS'/wiki/Index_of_Colombia-related_articles'
p388
aS'/wiki/Index_of_Ecuador-related_articles'
p389
aS'/wiki/Index_of_Falkland_Islands-related_articles'
p390
aS'/wiki/Index_of_Guyana-related_articles'
p391
aS'/wiki/Index_of_Paraguay-related_articles'
p392
aS'/wiki/Index_of_Peru-related_articles'
p393
aS'/wiki/Index_of_Suriname-related_articles'
p394
aS'/wiki/Index_of_Uruguay-related_articles'
p395
aS'/wiki/Index_of_Venezuela-related_articles'
p396
aS'/wiki/Index_of_Ascension_Island-related_articles'
p397
aS'/wiki/Index_of_health_articles'
p398
aS'/wiki/Index_of_life_extension-related_topics'
p399
aS'/wiki/Index_of_AIDS-related_topics'
p400
aS'/wiki/Index_of_history_articles'
p401
aS'/wiki/Index_of_World_War_II_articles'
p402
aS'/wiki/Index_of_World_War_II_articles_(0-9)'
p403
aS'/wiki/Index_of_World_War_II_articles_(A)'
p404
aS'/wiki/Index_of_World_War_II_articles_(B)'
p405
aS'/wiki/Index_of_World_War_II_articles_(C)'
p406
aS'/wiki/Index_of_World_War_II_articles_(D)'
p407
aS'/wiki/Index_of_World_War_II_articles_(E)'
p408
aS'/wiki/Index_of_World_War_II_articles_(F)'
p409
aS'/wiki/Index_of_World_War_II_articles_(G)'
p410
aS'/wiki/Index_of_World_War_II_articles_(H)'
p411
aS'/wiki/Index_of_World_War_II_articles_(I)'
p412
aS'/wiki/Index_of_World_War_II_articles_(J)'
p413
aS'/wiki/Index_of_World_War_II_articles_(K)'
p414
aS'/wiki/Index_of_World_War_II_articles_(L)'
p415
aS'/wiki/Index_of_World_War_II_articles_(M)'
p416
aS'/wiki/Index_of_World_War_II_articles_(N)'
p417
aS'/wiki/Index_of_World_War_II_articles_(O)'
p418
aS'/wiki/Index_of_World_War_II_articles_(P)'
p419
aS'/wiki/Index_of_World_War_II_articles_(Q)'
p420
aS'/wiki/Index_of_World_War_II_articles_(R)'
p421
aS'/wiki/Index_of_World_War_II_articles_(S)'
p422
aS'/wiki/Index_of_World_War_II_articles_(T)'
p423
aS'/wiki/Index_of_World_War_II_articles_(U)'
p424
aS'/wiki/Index_of_World_War_II_articles_(V)'
p425
aS'/wiki/Index_of_World_War_II_articles_(W)'
p426
aS'/wiki/Index_of_World_War_II_articles_(X-Z)'
p427
aS'/wiki/Index_of_World_War_II_articles_(X-Z)'
p428
aS'/wiki/Index_of_World_War_II_articles_(X-Z)'
p429
aS'/wiki/Index_of_ancient_Egypt-related_articles'
p430
aS'/wiki/Index_of_Egyptian_mythology_articles'
p431
aS'/wiki/Index_of_Baekje-related_articles'
p432
aS'/wiki/Index_of_Byzantine_Empire-related_articles'
p433
aS'/wiki/Index_of_East_Germany-related_articles'
p434
aS'/wiki/Index_of_mathematics_articles_(0-9)'
p435
aS'/wiki/Index_of_mathematics_articles_(A)'
p436
aS'/wiki/Index_of_mathematics_articles_(B)'
p437
aS'/wiki/Index_of_mathematics_articles_(C)'
p438
aS'/wiki/Index_of_mathematics_articles_(D)'
p439
aS'/wiki/Index_of_mathematics_articles_(E)'
p440
aS'/wiki/Index_of_mathematics_articles_(F)'
p441
aS'/wiki/Index_of_mathematics_articles_(G)'
p442
aS'/wiki/Index_of_mathematics_articles_(H)'
p443
aS'/wiki/Index_of_mathematics_articles_(I)'
p444
aS'/wiki/Index_of_mathematics_articles_(J)'
p445
aS'/wiki/Index_of_mathematics_articles_(K)'
p446
aS'/wiki/Index_of_mathematics_articles_(L)'
p447
aS'/wiki/Index_of_mathematics_articles_(M)'
p448
aS'/wiki/Index_of_mathematics_articles_(N)'
p449
aS'/wiki/Index_of_mathematics_articles_(O)'
p450
aS'/wiki/Index_of_mathematics_articles_(P)'
p451
aS'/wiki/Index_of_mathematics_articles_(Q)'
p452
aS'/wiki/Index_of_mathematics_articles_(R)'
p453
aS'/wiki/Index_of_mathematics_articles_(S)'
p454
aS'/wiki/Index_of_mathematics_articles_(T)'
p455
aS'/wiki/Index_of_mathematics_articles_(U)'
p456
aS'/wiki/Index_of_mathematics_articles_(V)'
p457
aS'/wiki/Index_of_mathematics_articles_(W)'
p458
aS'/wiki/Index_of_mathematics_articles_(X)'
p459
aS'/wiki/Index_of_mathematics_articles_(Y)'
p460
aS'/wiki/Index_of_mathematics_articles_(Z)'
p461
aS'/wiki/Index_of_statistics_articles'
p462
aS'/wiki/Index_of_logic_articles'
p463
aS'/wiki/Index_of_wave_articles'
p464
aS'/wiki/Index_of_biology_articles'
p465
aS'/wiki/Index_of_anatomy-related_topics'
p466
aS'/wiki/Index_of_biochemistry_articles'
p467
aS'/wiki/Index_of_genetics_articles'
p468
aS'/wiki/Index_of_sustainability_articles'
p469
aS'/wiki/Index_of_chemistry_articles'
p470
aS'/wiki/Index_of_physics_articles'
p471
aS'/wiki/Index_of_energy-related_articles'
p472
aS'/wiki/Index_of_earth_science_articles'
p473
aS'/wiki/Index_of_geology_articles'
p474
aS'/wiki/Index_of_meteorology_articles'
p475
aS'/wiki/Index_of_person-related_articles'
p476
aS'/wiki/Index_of_youth_articles'
p477
aS'/wiki/Index_of_philosophy_articles_(A-C)'
p478
aS'/wiki/Index_of_philosophy_articles_(A%E2%80%93C)'
p479
aS'/wiki/Index_of_philosophy_articles_(D%E2%80%93H)'
p480
aS'/wiki/Index_of_philosophy_articles_(I%E2%80%93Q)'
p481
aS'/wiki/Index_of_philosophy_articles_(R%E2%80%93Z)'
p482
aS'/wiki/Index_of_Eastern_philosophy_articles'
p483
aS'/wiki/Index_of_continental_philosophy_articles'
p484
aS'/wiki/Index_of_ancient_philosophy_articles'
p485
aS'/wiki/Index_of_medieval_philosophy_articles'
p486
aS'/wiki/Index_of_modern_philosophy_articles'
p487
aS'/wiki/Index_of_contemporary_philosophy_articles'
p488
aS'/wiki/Index_of_aesthetics_articles'
p489
aS'/wiki/Index_of_ethics_articles'
p490
aS'/wiki/Index_of_epistemology_articles'
p491
aS'/wiki/Index_of_logic_articles'
p492
aS'/wiki/Index_of_metaphysics_articles'
p493
aS'/wiki/Index_of_philosophy_of_language_articles'
p494
aS'/wiki/Index_of_philosophy_of_law_articles'
p495
aS'/wiki/Index_of_philosophy_of_mind_articles'
p496
aS'/wiki/Index_of_social_and_political_philosophy_articles'
p497
aS'/wiki/Index_of_philosophy_of_religion_articles'
p498
aS'/wiki/Index_of_philosophy_of_science_articles'
p499
aS'/wiki/Index_of_analytic_philosophy_articles'
p500
aS'/wiki/Index_of_continental_philosophy_articles'
p501
aS'/wiki/Index_of_humanism_articles'
p502
aS'/wiki/Index_of_religion-related_articles'
p503
aS'/wiki/Index_of_Buddhism-related_articles'
p504
aS'/wiki/Index_of_Catholic_Church_articles'
p505
aS'/wiki/Index_of_Eastern_Christianity-related_articles'
p506
aS'/wiki/Index_of_Islamic_and_Muslim_related_articles'
p507
aS'/wiki/Index_of_Jainism-related_articles'
p508
aS'/wiki/Index_of_cognitive_science_articles'
p509
aS'/wiki/Index_of_economics_articles'
p510
aS'/wiki/Index_of_education_articles'
p511
aS'/wiki/Index_of_linguistics_articles'
p512
aS'/wiki/Index_of_phonetics_articles'
p513
aS'/wiki/Index_of_law_articles'
p514
aS'/wiki/Index_of_tort_articles'
p515
aS'/wiki/Index_of_psychology_articles'
p516
aS'/wiki/Index_of_psychometric_articles'
p517
aS'/wiki/Index_of_sexology_articles'
p518
aS'/wiki/Index_of_BDSM_articles'
p519
aS'/wiki/Index_of_sociology_articles'
p520
aS'/wiki/Index_of_urban_sociology_articles'
p521
aS'/wiki/Index_of_urban_studies_articles'
p522
aS'/wiki/Index_of_politics_articles'
p523
aS'/wiki/Index_of_civics_articles'
p524
aS'/wiki/Index_of_masculism_topics'
p525
aS'/wiki/Index_of_youth_rights-related_articles'
p526
aS'/wiki/Index_of_waste_management_articles'
p527
aS'/wiki/Index_of_fishing_articles'
p528
aS'/wiki/Index_of_forestry_articles'
p529
aS'/wiki/Index_of_architecture_articles'
p530
aS'/wiki/Index_of_biotechnology_articles'
p531
aS'/wiki/Index_of_biomedical_engineering_articles'
p532
aS'/wiki/Index_of_chemical_engineering_articles'
p533
aS'/wiki/Index_of_Internet-related_articles'
p534
aS'/wiki/Index_of_video-related_articles'
p535
aS'/wiki/Index_of_computing_articles'
p536
aS'/wiki/Index_of_Internet-related_articles'
p537
aS'/wiki/Index_of_Android_OS-related_articles'
p538
aS'/wiki/Index_of_software_engineering_articles'
p539
aS'/wiki/Index_of_construction_articles'
p540
aS'/wiki/Index_of_structural_engineering_articles'
p541
aS'/wiki/Index_of_oral_health_and_dental_articles'
p542
aS'/wiki/Index_of_education_articles'
p543
aS'/wiki/Index_of_electronics_articles'
p544
aS'/wiki/Index_of_energy_articles'
p545
aS'/wiki/Index_of_steam_energy_articles'
p546
aS'/wiki/Index_of_solar_energy_articles'
p547
aS'/wiki/Index_of_engineering_articles'
p548
aS'/wiki/Index_of_structural_engineering_articles'
p549
aS'/wiki/Index_of_firefighting_articles'
p550
aS'/wiki/Index_of_health_articles'
p551
aS'/wiki/Index_of_Internet-related_articles'
p552
aS'/wiki/Index_of_management_articles'
p553
aS'/wiki/Index_of_Theory_of_Constraints-related_articles'
p554
aS'/wiki/Index_of_military_science_and_technology_articles'
p555
aS'/wiki/Index_of_oral_health_and_dental_articles'
p556
aS'/wiki/Index_of_robotics_articles'
p557
aS'/wiki/Index_of_aviation_articles'
p558
a.