ccopy_reg
_reconstructor
p0
(cDirectedGraph
DirectedGraph
p1
c__builtin__
dict
p2
(dp3
g0
(cGraph
Vertex
p4
c__builtin__
object
p5
Ntp6
Rp7
(dp8
S'color'
p9
S'red'
p10
sS'pos'
p11
(F0.6725708422778175
F8.97483417463062
tp12
sS'label'
p13
S'/wiki/Acetylcholinesterase'
p14
sb(dp15
g0
(g4
g5
Ntp16
Rp17
(dp18
g9
g10
sg11
(F7.436148968843954
F-5.069880522572598
tp19
sg13
S'/wiki/Dopamine'
p20
sbg0
(cDirectedGraph
Arc
p21
c__builtin__
tuple
p22
(g7
g17
tp23
tp24
Rp25
sg0
(g4
g5
Ntp26
Rp27
(dp28
g9
g10
sg11
(F5.611408216728602
F7.036483342212268
tp29
sg13
S'/wiki/Nervous_system'
p30
sbg0
(g21
g22
(g7
g27
tp31
tp32
Rp33
sg0
(g4
g5
Ntp34
Rp35
(dp36
g9
g10
sg11
(F-4.4999999999999964
F-7.79422863405995
tp37
sg13
S'/wiki/Neurotransmitter'
p38
sbg0
(g21
g22
(g7
g35
tp39
tp40
Rp41
sg0
(g4
g5
Ntp42
Rp43
(dp44
g9
g10
sg11
(F-8.899477436026157
F1.3413803955855685
tp45
sg13
S'/wiki/Acetylcholine'
p46
sbg0
(g21
g22
(g7
g43
tp47
tp48
Rp49
ssg0
(g4
g5
Ntp50
Rp51
(dp52
g9
g10
sg11
(F-8.108719811121771
F3.904953652058024
tp53
sg13
S'/wiki/Long-term_potentiation'
p54
sb(dp55
g0
(g4
g5
Ntp56
Rp57
(dp58
g9
g10
sg11
(F9.0
F0.0
tp59
sg13
S'/wiki/Human_brain'
p60
sbg0
(g21
g22
(g51
g57
tp61
tp62
Rp63
sg0
(g4
g5
Ntp64
Rp65
(dp66
g9
g10
sg11
(F7.436148968843954
F5.069880522572599
tp67
sg13
S'/wiki/Action_potential'
p68
sbg0
(g21
g22
(g51
g65
tp69
tp70
Rp71
sg27
g0
(g21
g22
(g51
g27
tp72
tp73
Rp74
sg0
(g4
g5
Ntp75
Rp76
(dp77
g9
g10
sg11
(F-2.002688405606829
F8.774351209636412
tp78
sg13
S'/wiki/Neuron'
p79
sbg0
(g21
g22
(g51
g76
tp80
tp81
Rp82
sg0
(g4
g5
Ntp83
Rp84
(dp85
g9
g10
sg11
(F-4.500000000000002
F7.794228634059946
tp86
sg13
S'/wiki/Neuroplasticity'
p87
sbg0
(g21
g22
(g51
g84
tp88
tp89
Rp90
sg0
(g4
g5
Ntp91
Rp92
(dp93
g9
g10
sg11
(F-6.597466846468437
F6.1215546399382745
tp94
sg13
S'/wiki/Neuroscience'
p95
sbg0
(g21
g22
(g51
g92
tp96
tp97
Rp98
sg35
g0
(g21
g22
(g51
g35
tp99
tp100
Rp101
sg0
(g4
g5
Ntp102
Rp103
(dp104
g9
g10
sg11
(F-8.108719811121773
F-3.904953652058022
tp105
sg13
S'/wiki/Synapse'
p106
sbg0
(g21
g22
(g51
g103
tp107
tp108
Rp109
sg0
(g4
g5
Ntp110
Rp111
(dp112
g9
g10
sg11
(F3.2880692192975585
F-8.377863737797837
tp113
sg13
S'/wiki/Synaptic_plasticity'
p114
sbg0
(g21
g22
(g51
g111
tp115
tp116
Rp117
sg0
(g4
g5
Ntp118
Rp119
(dp120
g9
g10
sg11
(F0.6725708422778193
F-8.97483417463062
tp121
sg13
S'/wiki/Central_nervous_system'
p122
sbg0
(g21
g22
(g51
g119
tp123
tp124
Rp125
sg0
(g4
g5
Ntp126
Rp127
(dp128
g9
g10
sg11
(F5.6114082167286
F-7.03648334221227
tp129
sg13
S'/wiki/Dendrite'
p130
sbg0
(g21
g22
(g51
g127
tp131
tp132
Rp133
ssg0
(g4
g5
Ntp134
Rp135
(dp136
g9
g10
sg11
(F-8.899477436026157
F-1.3413803955855703
tp137
sg13
S'/wiki/Aging_and_memory'
p138
sb(dp139
sg0
(g4
g5
Ntp140
Rp141
(dp142
g9
g10
sg11
(F-6.597466846468436
F-6.121554639938275
tp143
sg13
S'/wiki/Albert_Einstein%27s_brain'
p144
sb(dp145
g57
g0
(g21
g22
(g141
g57
tp146
tp147
Rp148
sg0
(g4
g5
Ntp149
Rp150
(dp151
g9
g10
sg11
(F-2.0026884056068313
F-8.774351209636412
tp152
sg13
S'/wiki/Brain'
p153
sbg0
(g21
g22
(g141
g150
tp154
tp155
Rp156
sg0
(g4
g5
Ntp157
Rp158
(dp159
g9
g10
sg11
(F8.600155252075266
F-2.652796569698135
tp160
sg13
S'/wiki/Glial_cell'
p161
sbg0
(g21
g22
(g141
g158
tp162
tp163
Rp164
ssg35
(dp165
g65
g0
(g21
g22
(g35
g65
tp166
tp167
Rp168
sg27
g0
(g21
g22
(g35
g27
tp169
tp170
Rp171
sg7
g0
(g21
g22
(g35
g7
tp172
tp173
Rp174
sg76
g0
(g21
g22
(g35
g76
tp175
tp176
Rp177
sg84
g0
(g21
g22
(g35
g84
tp178
tp179
Rp180
sg92
g0
(g21
g22
(g35
g92
tp181
tp182
Rp183
sg43
g0
(g21
g22
(g35
g43
tp184
tp185
Rp186
sg0
(g4
g5
Ntp187
Rp188
(dp189
g9
g10
sg11
(F8.600155252075266
F2.652796569698138
tp190
sg13
S'/wiki/Sensory_neuroscience'
p191
sbg0
(g21
g22
(g35
g188
tp192
tp193
Rp194
sg103
g0
(g21
g22
(g35
g103
tp195
tp196
Rp197
sg111
g0
(g21
g22
(g35
g111
tp198
tp199
Rp200
sg119
g0
(g21
g22
(g35
g119
tp201
tp202
Rp203
sg127
g0
(g21
g22
(g35
g127
tp204
tp205
Rp206
sg17
g0
(g21
g22
(g35
g17
tp207
tp208
Rp209
ssg150
(dp210
g57
g0
(g21
g22
(g150
g57
tp211
tp212
Rp213
sg65
g0
(g21
g22
(g150
g65
tp214
tp215
Rp216
sg27
g0
(g21
g22
(g150
g27
tp217
tp218
Rp219
sg76
g0
(g21
g22
(g150
g76
tp220
tp221
Rp222
sg92
g0
(g21
g22
(g150
g92
tp223
tp224
Rp225
sg51
g0
(g21
g22
(g150
g51
tp226
tp227
Rp228
sg35
g0
(g21
g22
(g150
g35
tp229
tp230
Rp231
sg103
g0
(g21
g22
(g150
g103
tp232
tp233
Rp234
sg111
g0
(g21
g22
(g150
g111
tp235
tp236
Rp237
sg43
g0
(g21
g22
(g150
g43
tp238
tp239
Rp240
sg127
g0
(g21
g22
(g150
g127
tp241
tp242
Rp243
sg17
g0
(g21
g22
(g150
g17
tp244
tp245
Rp246
ssg119
(dp247
g57
g0
(g21
g22
(g119
g57
tp248
tp249
Rp250
sg27
g0
(g21
g22
(g119
g27
tp251
tp252
Rp253
sg76
g0
(g21
g22
(g119
g76
tp254
tp255
Rp256
sg103
g0
(g21
g22
(g119
g103
tp257
tp258
Rp259
sg150
g0
(g21
g22
(g119
g150
tp260
tp261
Rp262
sg127
g0
(g21
g22
(g119
g127
tp263
tp264
Rp265
ssg127
(dp266
g76
g0
(g21
g22
(g127
g76
tp267
tp268
Rp269
sg119
g0
(g21
g22
(g127
g119
tp270
tp271
Rp272
sg103
g0
(g21
g22
(g127
g103
tp273
tp274
Rp275
sg51
g0
(g21
g22
(g127
g51
tp276
tp277
Rp278
ssg17
(dp279
g57
g0
(g21
g22
(g17
g57
tp280
tp281
Rp282
sg65
g0
(g21
g22
(g17
g65
tp283
tp284
Rp285
sg27
g0
(g21
g22
(g17
g27
tp286
tp287
Rp288
sg76
g0
(g21
g22
(g17
g76
tp289
tp290
Rp291
sg35
g0
(g21
g22
(g17
g35
tp292
tp293
Rp294
sg103
g0
(g21
g22
(g17
g103
tp295
tp296
Rp297
sg43
g0
(g21
g22
(g17
g43
tp298
tp299
Rp300
sg119
g0
(g21
g22
(g17
g119
tp301
tp302
Rp303
ssg158
(dp304
g57
g0
(g21
g22
(g158
g57
tp305
tp306
Rp307
sg65
g0
(g21
g22
(g158
g65
tp308
tp309
Rp310
sg27
g0
(g21
g22
(g158
g27
tp311
tp312
Rp313
sg76
g0
(g21
g22
(g158
g76
tp314
tp315
Rp316
sg92
g0
(g21
g22
(g158
g92
tp317
tp318
Rp319
sg35
g0
(g21
g22
(g158
g35
tp320
tp321
Rp322
sg103
g0
(g21
g22
(g158
g103
tp323
tp324
Rp325
sg111
g0
(g21
g22
(g158
g111
tp326
tp327
Rp328
sg119
g0
(g21
g22
(g158
g119
tp329
tp330
Rp331
sg127
g0
(g21
g22
(g158
g127
tp332
tp333
Rp334
ssg57
(dp335
g119
g0
(g21
g22
(g57
g119
tp336
tp337
Rp338
sg76
g0
(g21
g22
(g57
g76
tp339
tp340
Rp341
sg92
g0
(g21
g22
(g57
g92
tp342
tp343
Rp344
sg27
g0
(g21
g22
(g57
g27
tp345
tp346
Rp347
sg150
g0
(g21
g22
(g57
g150
tp348
tp349
Rp350
ssg65
(dp351
g7
g0
(g21
g22
(g65
g7
tp352
tp353
Rp354
sg0
(g4
g5
Ntp355
Rp356
(dp357
g9
g10
sg11
(F3.288069219297555
F8.377863737797838
tp358
sg13
S'/wiki/Neurite'
p359
sbg0
(g21
g22
(g65
g356
tp360
tp361
Rp362
sg76
g0
(g21
g22
(g65
g76
tp363
tp364
Rp365
sg35
g0
(g21
g22
(g65
g35
tp366
tp367
Rp368
sg103
g0
(g21
g22
(g65
g103
tp369
tp370
Rp371
sg43
g0
(g21
g22
(g65
g43
tp372
tp373
Rp374
sg119
g0
(g21
g22
(g65
g119
tp375
tp376
Rp377
sg127
g0
(g21
g22
(g65
g127
tp378
tp379
Rp380
ssg27
(dp381
g57
g0
(g21
g22
(g27
g57
tp382
tp383
Rp384
sg65
g0
(g21
g22
(g27
g65
tp385
tp386
Rp387
sg76
g0
(g21
g22
(g27
g76
tp388
tp389
Rp390
sg84
g0
(g21
g22
(g27
g84
tp391
tp392
Rp393
sg92
g0
(g21
g22
(g27
g92
tp394
tp395
Rp396
sg51
g0
(g21
g22
(g27
g51
tp397
tp398
Rp399
sg35
g0
(g21
g22
(g27
g35
tp400
tp401
Rp402
sg103
g0
(g21
g22
(g27
g103
tp403
tp404
Rp405
sg111
g0
(g21
g22
(g27
g111
tp406
tp407
Rp408
sg43
g0
(g21
g22
(g27
g43
tp409
tp410
Rp411
sg150
g0
(g21
g22
(g27
g150
tp412
tp413
Rp414
sg119
g0
(g21
g22
(g27
g119
tp415
tp416
Rp417
sg127
g0
(g21
g22
(g27
g127
tp418
tp419
Rp420
sg17
g0
(g21
g22
(g27
g17
tp421
tp422
Rp423
sg158
g0
(g21
g22
(g27
g158
tp424
tp425
Rp426
ssg356
(dp427
g76
g0
(g21
g22
(g356
g76
tp428
tp429
Rp430
sg127
g0
(g21
g22
(g356
g127
tp431
tp432
Rp433
sg92
g0
(g21
g22
(g356
g92
tp434
tp435
Rp436
ssg76
(dp437
g57
g0
(g21
g22
(g76
g57
tp438
tp439
Rp440
sg65
g0
(g21
g22
(g76
g65
tp441
tp442
Rp443
sg27
g0
(g21
g22
(g76
g27
tp444
tp445
Rp446
sg92
g0
(g21
g22
(g76
g92
tp447
tp448
Rp449
sg35
g0
(g21
g22
(g76
g35
tp450
tp451
Rp452
sg103
g0
(g21
g22
(g76
g103
tp453
tp454
Rp455
sg43
g0
(g21
g22
(g76
g43
tp456
tp457
Rp458
sg150
g0
(g21
g22
(g76
g150
tp459
tp460
Rp461
sg119
g0
(g21
g22
(g76
g119
tp462
tp463
Rp464
sg127
g0
(g21
g22
(g76
g127
tp465
tp466
Rp467
sg17
g0
(g21
g22
(g76
g17
tp468
tp469
Rp470
sg158
g0
(g21
g22
(g76
g158
tp471
tp472
Rp473
ssg84
(dp474
g65
g0
(g21
g22
(g84
g65
tp475
tp476
Rp477
sg27
g0
(g21
g22
(g84
g27
tp478
tp479
Rp480
sg76
g0
(g21
g22
(g84
g76
tp481
tp482
Rp483
sg92
g0
(g21
g22
(g84
g92
tp484
tp485
Rp486
sg51
g0
(g21
g22
(g84
g51
tp487
tp488
Rp489
sg35
g0
(g21
g22
(g84
g35
tp490
tp491
Rp492
sg188
g0
(g21
g22
(g84
g188
tp493
tp494
Rp495
sg103
g0
(g21
g22
(g84
g103
tp496
tp497
Rp498
sg111
g0
(g21
g22
(g84
g111
tp499
tp500
Rp501
sg150
g0
(g21
g22
(g84
g150
tp502
tp503
Rp504
sg119
g0
(g21
g22
(g84
g119
tp505
tp506
Rp507
ssg92
(dp508
g57
g0
(g21
g22
(g92
g57
tp509
tp510
Rp511
sg65
g0
(g21
g22
(g92
g65
tp512
tp513
Rp514
sg27
g0
(g21
g22
(g92
g27
tp515
tp516
Rp517
sg76
g0
(g21
g22
(g92
g76
tp518
tp519
Rp520
sg84
g0
(g21
g22
(g92
g84
tp521
tp522
Rp523
sg35
g0
(g21
g22
(g92
g35
tp524
tp525
Rp526
sg188
g0
(g21
g22
(g92
g188
tp527
tp528
Rp529
sg103
g0
(g21
g22
(g92
g103
tp530
tp531
Rp532
sg150
g0
(g21
g22
(g92
g150
tp533
tp534
Rp535
sg119
g0
(g21
g22
(g92
g119
tp536
tp537
Rp538
sg127
g0
(g21
g22
(g92
g127
tp539
tp540
Rp541
ssg43
(dp542
g51
g0
(g21
g22
(g43
g51
tp543
tp544
Rp545
sg7
g0
(g21
g22
(g43
g7
tp546
tp547
Rp548
sg76
g0
(g21
g22
(g43
g76
tp549
tp550
Rp551
sg35
g0
(g21
g22
(g43
g35
tp552
tp553
Rp554
sg111
g0
(g21
g22
(g43
g111
tp555
tp556
Rp557
sg119
g0
(g21
g22
(g43
g119
tp558
tp559
Rp560
sg17
g0
(g21
g22
(g43
g17
tp561
tp562
Rp563
ssg188
(dp564
g65
g0
(g21
g22
(g188
g65
tp565
tp566
Rp567
sg76
g0
(g21
g22
(g188
g76
tp568
tp569
Rp570
sg84
g0
(g21
g22
(g188
g84
tp571
tp572
Rp573
sg92
g0
(g21
g22
(g188
g92
tp574
tp575
Rp576
sg35
g0
(g21
g22
(g188
g35
tp577
tp578
Rp579
sg127
g0
(g21
g22
(g188
g127
tp580
tp581
Rp582
ssg103
(dp583
g76
g0
(g21
g22
(g103
g76
tp584
tp585
Rp586
sg119
g0
(g21
g22
(g103
g119
tp587
tp588
Rp589
sg127
g0
(g21
g22
(g103
g127
tp590
tp591
Rp592
sg27
g0
(g21
g22
(g103
g27
tp593
tp594
Rp595
sg35
g0
(g21
g22
(g103
g35
tp596
tp597
Rp598
ssg111
(dp599
g51
g0
(g21
g22
(g111
g51
tp600
tp601
Rp602
sg27
g0
(g21
g22
(g111
g27
tp603
tp604
Rp605
sg76
g0
(g21
g22
(g111
g76
tp606
tp607
Rp608
sg84
g0
(g21
g22
(g111
g84
tp609
tp610
Rp611
sg92
g0
(g21
g22
(g111
g92
tp612
tp613
Rp614
sg65
g0
(g21
g22
(g111
g65
tp615
tp616
Rp617
sg35
g0
(g21
g22
(g111
g35
tp618
tp619
Rp620
sg103
g0
(g21
g22
(g111
g103
tp621
tp622
Rp623
sg150
g0
(g21
g22
(g111
g150
tp624
tp625
Rp626
sg119
g0
(g21
g22
(g111
g119
tp627
tp628
Rp629
sg158
g0
(g21
g22
(g111
g158
tp630
tp631
Rp632
sstp633
Rp634
(dp635
S'reverse_graph'
p636
(dp637
g57
(dp638
g51
g63
sg27
g384
sg76
g440
sg92
g511
sg141
g148
sg150
g213
sg119
g250
sg17
g282
sg158
g307
ssg188
(dp639
g84
g495
sg92
g529
sg35
g194
ssg65
(dp640
g51
g71
sg27
g387
sg76
g443
sg84
g477
sg92
g514
sg35
g168
sg188
g567
sg111
g617
sg150
g216
sg17
g285
sg158
g310
ssg27
(dp641
g57
g347
sg51
g74
sg7
g33
sg76
g446
sg84
g480
sg92
g517
sg35
g171
sg103
g595
sg111
g605
sg150
g219
sg119
g253
sg17
g288
sg158
g313
ssg356
(dp642
g65
g362
ssg7
(dp643
g65
g354
sg35
g174
sg43
g548
ssg76
(dp644
g57
g341
sg65
g365
sg27
g390
sg356
g430
sg84
g483
sg92
g520
sg51
g82
sg43
g551
sg188
g570
sg103
g586
sg111
g608
sg35
g177
sg150
g222
sg119
g256
sg127
g269
sg17
g291
sg158
g316
ssg84
(dp645
g51
g90
sg27
g393
sg92
g523
sg35
g180
sg188
g573
sg111
g611
ssg92
(dp646
g57
g344
sg51
g98
sg27
g396
sg356
g436
sg76
g449
sg84
g486
sg35
g183
sg188
g576
sg111
g614
sg150
g225
sg158
g319
ssg51
(dp647
g27
g399
sg84
g489
sg43
g545
sg111
g602
sg150
g228
sg127
g278
ssg43
(dp648
g65
g374
sg27
g411
sg7
g49
sg76
g458
sg35
g186
sg150
g240
sg17
g300
ssg135
(dp649
sg103
(dp650
g65
g371
sg27
g405
sg76
g455
sg84
g498
sg92
g532
sg51
g109
sg35
g197
sg111
g623
sg150
g234
sg119
g259
sg127
g275
sg17
g297
sg158
g325
ssg141
(dp651
sg35
(dp652
g65
g368
sg27
g402
sg7
g41
sg76
g452
sg84
g492
sg92
g526
sg51
g101
sg43
g554
sg188
g579
sg103
g598
sg111
g620
sg150
g231
sg17
g294
sg158
g322
ssg150
(dp653
g57
g350
sg27
g414
sg76
g461
sg84
g504
sg92
g535
sg141
g156
sg119
g262
sg111
g626
ssg119
(dp654
g57
g338
sg65
g377
sg27
g417
sg76
g464
sg84
g507
sg92
g538
sg51
g125
sg43
g560
sg103
g589
sg111
g629
sg35
g203
sg127
g272
sg17
g303
sg158
g331
ssg111
(dp655
g51
g117
sg27
g408
sg84
g501
sg43
g557
sg35
g200
sg150
g237
sg158
g328
ssg127
(dp656
g51
g133
sg27
g420
sg356
g433
sg76
g467
sg92
g541
sg65
g380
sg35
g206
sg188
g582
sg103
g592
sg150
g243
sg119
g265
sg158
g334
ssg17
(dp657
g27
g423
sg7
g25
sg76
g470
sg43
g563
sg35
g209
sg150
g246
ssg158
(dp658
g76
g473
sg27
g426
sg141
g164
sg111
g632
sssb.